
variable_elf_static.out:     file format elf32-littleriscv


Disassembly of section .text:

00010074 <_GLOBAL__sub_I__ZN9__gnu_cxx9__freeresEv>:
   10074:	1141                	addi	sp,sp,-16
   10076:	c226                	sw	s1,4(sp)
   10078:	6485                	lui	s1,0x1
   1007a:	c422                	sw	s0,8(sp)
   1007c:	94048493          	addi	s1,s1,-1728 # 940 <_GLOBAL__sub_I__ZN9__gnu_cxx9__freeresEv-0xf734>
   10080:	27818413          	addi	s0,gp,632 # 294b8 <_ZN12_GLOBAL__N_114emergency_poolE>
   10084:	8526                	mv	a0,s1
   10086:	c606                	sw	ra,12(sp)
   10088:	c444                	sw	s1,12(s0)
   1008a:	7a4070ef          	jal	ra,1782e <malloc>
   1008e:	c408                	sw	a0,8(s0)
   10090:	e911                	bnez	a0,100a4 <_GLOBAL__sub_I__ZN9__gnu_cxx9__freeresEv+0x30>
   10092:	00042623          	sw	zero,12(s0)
   10096:	00042223          	sw	zero,4(s0)
   1009a:	40b2                	lw	ra,12(sp)
   1009c:	4422                	lw	s0,8(sp)
   1009e:	4492                	lw	s1,4(sp)
   100a0:	0141                	addi	sp,sp,16
   100a2:	8082                	ret
   100a4:	c048                	sw	a0,4(s0)
   100a6:	c104                	sw	s1,0(a0)
   100a8:	00052223          	sw	zero,4(a0)
   100ac:	b7fd                	j	1009a <_GLOBAL__sub_I__ZN9__gnu_cxx9__freeresEv+0x26>

000100ae <register_fini>:
   100ae:	00000793          	li	a5,0
   100b2:	c791                	beqz	a5,100be <register_fini+0x10>
   100b4:	656d                	lui	a0,0x1b
   100b6:	11c50513          	addi	a0,a0,284 # 1b11c <__libc_fini_array>
   100ba:	3020f06f          	j	1f3bc <atexit>
   100be:	8082                	ret

000100c0 <_start>:
   100c0:	00019197          	auipc	gp,0x19
   100c4:	18018193          	addi	gp,gp,384 # 29240 <__global_pointer$>
   100c8:	22018513          	addi	a0,gp,544 # 29460 <global_non_init>
   100cc:	2f418613          	addi	a2,gp,756 # 29534 <__BSS_END__>
   100d0:	8e09                	sub	a2,a2,a0
   100d2:	4581                	li	a1,0
   100d4:	7b5070ef          	jal	ra,18088 <memset>
   100d8:	0000f517          	auipc	a0,0xf
   100dc:	2e450513          	addi	a0,a0,740 # 1f3bc <atexit>
   100e0:	c519                	beqz	a0,100ee <_start+0x2e>
   100e2:	0000b517          	auipc	a0,0xb
   100e6:	03a50513          	addi	a0,a0,58 # 1b11c <__libc_fini_array>
   100ea:	2d20f0ef          	jal	ra,1f3bc <atexit>
   100ee:	6ce070ef          	jal	ra,177bc <__libc_init_array>
   100f2:	4502                	lw	a0,0(sp)
   100f4:	004c                	addi	a1,sp,4
   100f6:	4601                	li	a2,0
   100f8:	2889                	jal	1014a <main>
   100fa:	29e0706f          	j	17398 <exit>

000100fe <__do_global_dtors_aux>:
   100fe:	2581c703          	lbu	a4,600(gp) # 29498 <completed.1>
   10102:	e715                	bnez	a4,1012e <__do_global_dtors_aux+0x30>
   10104:	1141                	addi	sp,sp,-16
   10106:	c422                	sw	s0,8(sp)
   10108:	843e                	mv	s0,a5
   1010a:	67dd                	lui	a5,0x17
   1010c:	c606                	sw	ra,12(sp)
   1010e:	2b078793          	addi	a5,a5,688 # 172b0 <__deregister_frame_info>
   10112:	c799                	beqz	a5,10120 <__do_global_dtors_aux+0x22>
   10114:	00027537          	lui	a0,0x27
   10118:	32050513          	addi	a0,a0,800 # 27320 <__EH_FRAME_BEGIN__>
   1011c:	194070ef          	jal	ra,172b0 <__deregister_frame_info>
   10120:	4785                	li	a5,1
   10122:	40b2                	lw	ra,12(sp)
   10124:	24f18c23          	sb	a5,600(gp) # 29498 <completed.1>
   10128:	4422                	lw	s0,8(sp)
   1012a:	0141                	addi	sp,sp,16
   1012c:	8082                	ret
   1012e:	8082                	ret

00010130 <frame_dummy>:
   10130:	67dd                	lui	a5,0x17
   10132:	1e278793          	addi	a5,a5,482 # 171e2 <__register_frame_info>
   10136:	cb89                	beqz	a5,10148 <frame_dummy+0x18>
   10138:	00027537          	lui	a0,0x27
   1013c:	25c18593          	addi	a1,gp,604 # 2949c <object.0>
   10140:	32050513          	addi	a0,a0,800 # 27320 <__EH_FRAME_BEGIN__>
   10144:	09e0706f          	j	171e2 <__register_frame_info>
   10148:	8082                	ret

0001014a <main>:
   1014a:	1101                	addi	sp,sp,-32
   1014c:	ce06                	sw	ra,28(sp)
   1014e:	cc22                	sw	s0,24(sp)
   10150:	1000                	addi	s0,sp,32
   10152:	04200793          	li	a5,66
   10156:	fef42623          	sw	a5,-20(s0)
   1015a:	02800513          	li	a0,40
   1015e:	2015                	jal	10182 <_Znaj>
   10160:	87aa                	mv	a5,a0
   10162:	fef42423          	sw	a5,-24(s0)
   10166:	2039                	jal	10174 <_Z8functionv>
   10168:	4781                	li	a5,0
   1016a:	853e                	mv	a0,a5
   1016c:	40f2                	lw	ra,28(sp)
   1016e:	4462                	lw	s0,24(sp)
   10170:	6105                	addi	sp,sp,32
   10172:	8082                	ret

00010174 <_Z8functionv>:
   10174:	1141                	addi	sp,sp,-16
   10176:	c622                	sw	s0,12(sp)
   10178:	0800                	addi	s0,sp,16
   1017a:	0001                	nop
   1017c:	4432                	lw	s0,12(sp)
   1017e:	0141                	addi	sp,sp,16
   10180:	8082                	ret

00010182 <_Znaj>:
   10182:	a009                	j	10184 <_Znwj>

00010184 <_Znwj>:
   10184:	1141                	addi	sp,sp,-16
   10186:	c422                	sw	s0,8(sp)
   10188:	c606                	sw	ra,12(sp)
   1018a:	842a                	mv	s0,a0
   1018c:	e111                	bnez	a0,10190 <_Znwj+0xc>
   1018e:	4405                	li	s0,1
   10190:	8522                	mv	a0,s0
   10192:	69c070ef          	jal	ra,1782e <malloc>
   10196:	e505                	bnez	a0,101be <_Znwj+0x3a>
   10198:	2e55                	jal	1054c <_ZSt15get_new_handlerv>
   1019a:	e105                	bnez	a0,101ba <_Znwj+0x36>
   1019c:	4511                	li	a0,4
   1019e:	22a1                	jal	102e6 <__cxa_allocate_exception>
   101a0:	000247b7          	lui	a5,0x24
   101a4:	a0478793          	addi	a5,a5,-1532 # 23a04 <_ZTVSt9bad_alloc+0x8>
   101a8:	6641                	lui	a2,0x10
   101aa:	000245b7          	lui	a1,0x24
   101ae:	c11c                	sw	a5,0(a0)
   101b0:	1d060613          	addi	a2,a2,464 # 101d0 <_ZNSt9bad_allocD1Ev>
   101b4:	9f058593          	addi	a1,a1,-1552 # 239f0 <_ZTISt9bad_alloc>
   101b8:	2601                	jal	104b8 <__cxa_throw>
   101ba:	9502                	jalr	a0
   101bc:	bfd1                	j	10190 <_Znwj+0xc>
   101be:	40b2                	lw	ra,12(sp)
   101c0:	4422                	lw	s0,8(sp)
   101c2:	0141                	addi	sp,sp,16
   101c4:	8082                	ret

000101c6 <_ZNKSt9bad_alloc4whatEv>:
   101c6:	00024537          	lui	a0,0x24
   101ca:	9d050513          	addi	a0,a0,-1584 # 239d0 <__clzsi2+0x40>
   101ce:	8082                	ret

000101d0 <_ZNSt9bad_allocD1Ev>:
   101d0:	000247b7          	lui	a5,0x24
   101d4:	a0478793          	addi	a5,a5,-1532 # 23a04 <_ZTVSt9bad_alloc+0x8>
   101d8:	c11c                	sw	a5,0(a0)
   101da:	a265                	j	10382 <_ZNSt9exceptionD1Ev>

000101dc <_ZNSt9bad_allocD0Ev>:
   101dc:	1141                	addi	sp,sp,-16
   101de:	c422                	sw	s0,8(sp)
   101e0:	c606                	sw	ra,12(sp)
   101e2:	842a                	mv	s0,a0
   101e4:	37f5                	jal	101d0 <_ZNSt9bad_allocD1Ev>
   101e6:	8522                	mv	a0,s0
   101e8:	4422                	lw	s0,8(sp)
   101ea:	40b2                	lw	ra,12(sp)
   101ec:	4591                	li	a1,4
   101ee:	0141                	addi	sp,sp,16
   101f0:	a009                	j	101f2 <_ZdlPvj>

000101f2 <_ZdlPvj>:
   101f2:	1d80406f          	j	143ca <_ZdlPv>

000101f6 <_ZN12_GLOBAL__N_14pool4freeEPv.constprop.0>:
   101f6:	27818893          	addi	a7,gp,632 # 294b8 <_ZN12_GLOBAL__N_114emergency_poolE>
   101fa:	0048a783          	lw	a5,4(a7)
   101fe:	ff050613          	addi	a2,a0,-16
   10202:	27818593          	addi	a1,gp,632 # 294b8 <_ZN12_GLOBAL__N_114emergency_poolE>
   10206:	c799                	beqz	a5,10214 <_ZN12_GLOBAL__N_14pool4freeEPv.constprop.0+0x1e>
   10208:	ff052703          	lw	a4,-16(a0)
   1020c:	00e606b3          	add	a3,a2,a4
   10210:	00f6f663          	bgeu	a3,a5,1021c <_ZN12_GLOBAL__N_14pool4freeEPv.constprop.0+0x26>
   10214:	fef52a23          	sw	a5,-12(a0)
   10218:	c1d0                	sw	a2,4(a1)
   1021a:	8082                	ret
   1021c:	00488813          	addi	a6,a7,4
   10220:	00d79c63          	bne	a5,a3,10238 <_ZN12_GLOBAL__N_14pool4freeEPv.constprop.0+0x42>
   10224:	43d4                	lw	a3,4(a5)
   10226:	439c                	lw	a5,0(a5)
   10228:	fed52a23          	sw	a3,-12(a0)
   1022c:	973e                	add	a4,a4,a5
   1022e:	fee52823          	sw	a4,-16(a0)
   10232:	00c8a223          	sw	a2,4(a7)
   10236:	8082                	ret
   10238:	43cc                	lw	a1,4(a5)
   1023a:	cd89                	beqz	a1,10254 <_ZN12_GLOBAL__N_14pool4freeEPv.constprop.0+0x5e>
   1023c:	00b6f663          	bgeu	a3,a1,10248 <_ZN12_GLOBAL__N_14pool4freeEPv.constprop.0+0x52>
   10240:	00478813          	addi	a6,a5,4
   10244:	87ae                	mv	a5,a1
   10246:	bfcd                	j	10238 <_ZN12_GLOBAL__N_14pool4freeEPv.constprop.0+0x42>
   10248:	00b69663          	bne	a3,a1,10254 <_ZN12_GLOBAL__N_14pool4freeEPv.constprop.0+0x5e>
   1024c:	428c                	lw	a1,0(a3)
   1024e:	42d4                	lw	a3,4(a3)
   10250:	972e                	add	a4,a4,a1
   10252:	c3d4                	sw	a3,4(a5)
   10254:	00082783          	lw	a5,0(a6)
   10258:	4394                	lw	a3,0(a5)
   1025a:	00d785b3          	add	a1,a5,a3
   1025e:	00b61563          	bne	a2,a1,10268 <_ZN12_GLOBAL__N_14pool4freeEPv.constprop.0+0x72>
   10262:	9736                	add	a4,a4,a3
   10264:	c398                	sw	a4,0(a5)
   10266:	8082                	ret
   10268:	43dc                	lw	a5,4(a5)
   1026a:	fee52823          	sw	a4,-16(a0)
   1026e:	fef52a23          	sw	a5,-12(a0)
   10272:	00082783          	lw	a5,0(a6)
   10276:	c3d0                	sw	a2,4(a5)
   10278:	8082                	ret

0001027a <_ZN12_GLOBAL__N_14pool8allocateEj.constprop.0>:
   1027a:	0541                	addi	a0,a0,16
   1027c:	47a1                	li	a5,8
   1027e:	00f57363          	bgeu	a0,a5,10284 <_ZN12_GLOBAL__N_14pool8allocateEj.constprop.0+0xa>
   10282:	4521                	li	a0,8
   10284:	053d                	addi	a0,a0,15
   10286:	27818713          	addi	a4,gp,632 # 294b8 <_ZN12_GLOBAL__N_114emergency_poolE>
   1028a:	ff057793          	andi	a5,a0,-16
   1028e:	0711                	addi	a4,a4,4
   10290:	4308                	lw	a0,0(a4)
   10292:	c915                	beqz	a0,102c6 <_ZN12_GLOBAL__N_14pool8allocateEj.constprop.0+0x4c>
   10294:	4114                	lw	a3,0(a0)
   10296:	4150                	lw	a2,4(a0)
   10298:	00f6ff63          	bgeu	a3,a5,102b6 <_ZN12_GLOBAL__N_14pool8allocateEj.constprop.0+0x3c>
   1029c:	00450713          	addi	a4,a0,4
   102a0:	8532                	mv	a0,a2
   102a2:	bfc5                	j	10292 <_ZN12_GLOBAL__N_14pool8allocateEj.constprop.0+0x18>
   102a4:	00f506b3          	add	a3,a0,a5
   102a8:	c2d0                	sw	a2,4(a3)
   102aa:	4308                	lw	a0,0(a4)
   102ac:	c28c                	sw	a1,0(a3)
   102ae:	c11c                	sw	a5,0(a0)
   102b0:	c314                	sw	a3,0(a4)
   102b2:	0541                	addi	a0,a0,16
   102b4:	8082                	ret
   102b6:	40f685b3          	sub	a1,a3,a5
   102ba:	481d                	li	a6,7
   102bc:	feb864e3          	bltu	a6,a1,102a4 <_ZN12_GLOBAL__N_14pool8allocateEj.constprop.0+0x2a>
   102c0:	c114                	sw	a3,0(a0)
   102c2:	c310                	sw	a2,0(a4)
   102c4:	b7fd                	j	102b2 <_ZN12_GLOBAL__N_14pool8allocateEj.constprop.0+0x38>
   102c6:	8082                	ret

000102c8 <_ZN9__gnu_cxx9__freeresEv>:
   102c8:	1141                	addi	sp,sp,-16
   102ca:	c422                	sw	s0,8(sp)
   102cc:	27818413          	addi	s0,gp,632 # 294b8 <_ZN12_GLOBAL__N_114emergency_poolE>
   102d0:	4408                	lw	a0,8(s0)
   102d2:	c606                	sw	ra,12(sp)
   102d4:	c509                	beqz	a0,102de <_ZN9__gnu_cxx9__freeresEv+0x16>
   102d6:	560070ef          	jal	ra,17836 <free>
   102da:	00042423          	sw	zero,8(s0)
   102de:	40b2                	lw	ra,12(sp)
   102e0:	4422                	lw	s0,8(sp)
   102e2:	0141                	addi	sp,sp,16
   102e4:	8082                	ret

000102e6 <__cxa_allocate_exception>:
   102e6:	1141                	addi	sp,sp,-16
   102e8:	c422                	sw	s0,8(sp)
   102ea:	06050413          	addi	s0,a0,96
   102ee:	8522                	mv	a0,s0
   102f0:	c606                	sw	ra,12(sp)
   102f2:	53c070ef          	jal	ra,1782e <malloc>
   102f6:	87aa                	mv	a5,a0
   102f8:	e511                	bnez	a0,10304 <__cxa_allocate_exception+0x1e>
   102fa:	8522                	mv	a0,s0
   102fc:	3fbd                	jal	1027a <_ZN12_GLOBAL__N_14pool8allocateEj.constprop.0>
   102fe:	87aa                	mv	a5,a0
   10300:	e111                	bnez	a0,10304 <__cxa_allocate_exception+0x1e>
   10302:	28f5                	jal	103fe <_ZSt9terminatev>
   10304:	06000613          	li	a2,96
   10308:	4581                	li	a1,0
   1030a:	853e                	mv	a0,a5
   1030c:	57d070ef          	jal	ra,18088 <memset>
   10310:	40b2                	lw	ra,12(sp)
   10312:	4422                	lw	s0,8(sp)
   10314:	06050513          	addi	a0,a0,96
   10318:	0141                	addi	sp,sp,16
   1031a:	8082                	ret

0001031c <__cxa_free_exception>:
   1031c:	27818713          	addi	a4,gp,632 # 294b8 <_ZN12_GLOBAL__N_114emergency_poolE>
   10320:	471c                	lw	a5,8(a4)
   10322:	fa050513          	addi	a0,a0,-96
   10326:	00a7f763          	bgeu	a5,a0,10334 <__cxa_free_exception+0x18>
   1032a:	4758                	lw	a4,12(a4)
   1032c:	97ba                	add	a5,a5,a4
   1032e:	00f57363          	bgeu	a0,a5,10334 <__cxa_free_exception+0x18>
   10332:	b5d1                	j	101f6 <_ZN12_GLOBAL__N_14pool4freeEPv.constprop.0>
   10334:	5020706f          	j	17836 <free>

00010338 <__cxa_allocate_dependent_exception>:
   10338:	1141                	addi	sp,sp,-16
   1033a:	05000513          	li	a0,80
   1033e:	c606                	sw	ra,12(sp)
   10340:	4ee070ef          	jal	ra,1782e <malloc>
   10344:	87aa                	mv	a5,a0
   10346:	e519                	bnez	a0,10354 <__cxa_allocate_dependent_exception+0x1c>
   10348:	05000513          	li	a0,80
   1034c:	373d                	jal	1027a <_ZN12_GLOBAL__N_14pool8allocateEj.constprop.0>
   1034e:	87aa                	mv	a5,a0
   10350:	e111                	bnez	a0,10354 <__cxa_allocate_dependent_exception+0x1c>
   10352:	2075                	jal	103fe <_ZSt9terminatev>
   10354:	05000613          	li	a2,80
   10358:	4581                	li	a1,0
   1035a:	853e                	mv	a0,a5
   1035c:	52d070ef          	jal	ra,18088 <memset>
   10360:	40b2                	lw	ra,12(sp)
   10362:	0141                	addi	sp,sp,16
   10364:	8082                	ret

00010366 <__cxa_free_dependent_exception>:
   10366:	27818693          	addi	a3,gp,632 # 294b8 <_ZN12_GLOBAL__N_114emergency_poolE>
   1036a:	4698                	lw	a4,8(a3)
   1036c:	87aa                	mv	a5,a0
   1036e:	00a77763          	bgeu	a4,a0,1037c <__cxa_free_dependent_exception+0x16>
   10372:	46d4                	lw	a3,12(a3)
   10374:	9736                	add	a4,a4,a3
   10376:	00e57363          	bgeu	a0,a4,1037c <__cxa_free_dependent_exception+0x16>
   1037a:	bdb5                	j	101f6 <_ZN12_GLOBAL__N_14pool4freeEPv.constprop.0>
   1037c:	853e                	mv	a0,a5
   1037e:	4b80706f          	j	17836 <free>

00010382 <_ZNSt9exceptionD1Ev>:
   10382:	8082                	ret

00010384 <_ZNSt13bad_exceptionD1Ev>:
   10384:	8082                	ret

00010386 <_ZGTtNKSt9exception4whatEv>:
   10386:	00024537          	lui	a0,0x24
   1038a:	a1050513          	addi	a0,a0,-1520 # 23a10 <_ZTVSt9bad_alloc+0x14>
   1038e:	8082                	ret

00010390 <_ZGTtNKSt13bad_exception4whatEv>:
   10390:	00024537          	lui	a0,0x24
   10394:	a2050513          	addi	a0,a0,-1504 # 23a20 <_ZTVSt9bad_alloc+0x24>
   10398:	8082                	ret

0001039a <_ZNSt9exceptionD0Ev>:
   1039a:	4591                	li	a1,4
   1039c:	bd99                	j	101f2 <_ZdlPvj>

0001039e <_ZNSt13bad_exceptionD0Ev>:
   1039e:	4591                	li	a1,4
   103a0:	bd89                	j	101f2 <_ZdlPvj>

000103a2 <_ZN10__cxxabiv115__forced_unwindD1Ev>:
   103a2:	8082                	ret

000103a4 <_ZN10__cxxabiv115__forced_unwindD0Ev>:
   103a4:	4591                	li	a1,4
   103a6:	b5b1                	j	101f2 <_ZdlPvj>

000103a8 <_ZN10__cxxabiv119__foreign_exceptionD1Ev>:
   103a8:	8082                	ret

000103aa <_ZN10__cxxabiv119__foreign_exceptionD0Ev>:
   103aa:	4591                	li	a1,4
   103ac:	b599                	j	101f2 <_ZdlPvj>

000103ae <_ZGTtNKSt9exceptionD1Ev>:
   103ae:	8082                	ret

000103b0 <_ZGTtNKSt13bad_exceptionD1Ev>:
   103b0:	8082                	ret

000103b2 <_ZN10__cxxabiv111__terminateEPFvvE>:
   103b2:	1101                	addi	sp,sp,-32
   103b4:	ce06                	sw	ra,28(sp)
   103b6:	cc22                	sw	s0,24(sp)
   103b8:	9502                	jalr	a0
   103ba:	7cf060ef          	jal	ra,17388 <abort>
   103be:	016040ef          	jal	ra,143d4 <__cxa_begin_catch>
   103c2:	7c7060ef          	jal	ra,17388 <abort>
   103c6:	c62a                	sw	a0,12(sp)
   103c8:	842e                	mv	s0,a1
   103ca:	074040ef          	jal	ra,1443e <__cxa_end_catch>
   103ce:	57fd                	li	a5,-1
   103d0:	4532                	lw	a0,12(sp)
   103d2:	00f40463          	beq	s0,a5,103da <_ZN10__cxxabiv111__terminateEPFvvE+0x28>
   103d6:	6fb050ef          	jal	ra,162d0 <_Unwind_Resume>
   103da:	6bc040ef          	jal	ra,14a96 <__cxa_call_unexpected>

000103de <_ZSt13set_terminatePFvvE>:
   103de:	e501                	bnez	a0,103e6 <_ZSt13set_terminatePFvvE+0x8>
   103e0:	6541                	lui	a0,0x10
   103e2:	73450513          	addi	a0,a0,1844 # 10734 <_ZN9__gnu_cxx27__verbose_terminate_handlerEv>
   103e6:	21018793          	addi	a5,gp,528 # 29450 <_ZN10__cxxabiv119__terminate_handlerE>
   103ea:	0f50000f          	fence	iorw,ow
   103ee:	0ca7a52f          	amoswap.w.aq	a0,a0,(a5)
   103f2:	8082                	ret

000103f4 <_ZSt13get_terminatev>:
   103f4:	2101a503          	lw	a0,528(gp) # 29450 <_ZN10__cxxabiv119__terminate_handlerE>
   103f8:	0ff0000f          	fence
   103fc:	8082                	ret

000103fe <_ZSt9terminatev>:
   103fe:	1141                	addi	sp,sp,-16
   10400:	c606                	sw	ra,12(sp)
   10402:	3fcd                	jal	103f4 <_ZSt13get_terminatev>
   10404:	377d                	jal	103b2 <_ZN10__cxxabiv111__terminateEPFvvE>

00010406 <_ZN10__cxxabiv112__unexpectedEPFvvE>:
   10406:	1141                	addi	sp,sp,-16
   10408:	c606                	sw	ra,12(sp)
   1040a:	9502                	jalr	a0
   1040c:	3fcd                	jal	103fe <_ZSt9terminatev>

0001040e <_ZSt14set_unexpectedPFvvE>:
   1040e:	e501                	bnez	a0,10416 <_ZSt14set_unexpectedPFvvE+0x8>
   10410:	6541                	lui	a0,0x10
   10412:	3fe50513          	addi	a0,a0,1022 # 103fe <_ZSt9terminatev>
   10416:	20818793          	addi	a5,gp,520 # 29448 <_ZN10__cxxabiv120__unexpected_handlerE>
   1041a:	0f50000f          	fence	iorw,ow
   1041e:	0ca7a52f          	amoswap.w.aq	a0,a0,(a5)
   10422:	8082                	ret

00010424 <_ZSt14get_unexpectedv>:
   10424:	2081a503          	lw	a0,520(gp) # 29448 <_ZN10__cxxabiv120__unexpected_handlerE>
   10428:	0ff0000f          	fence
   1042c:	8082                	ret

0001042e <_ZSt10unexpectedv>:
   1042e:	1141                	addi	sp,sp,-16
   10430:	c606                	sw	ra,12(sp)
   10432:	3fcd                	jal	10424 <_ZSt14get_unexpectedv>
   10434:	3fc9                	jal	10406 <_ZN10__cxxabiv112__unexpectedEPFvvE>

00010436 <_ZL23__gxx_exception_cleanup19_Unwind_Reason_CodeP17_Unwind_Exception>:
   10436:	1101                	addi	sp,sp,-32
   10438:	ce06                	sw	ra,28(sp)
   1043a:	4785                	li	a5,1
   1043c:	00a7f563          	bgeu	a5,a0,10446 <_ZL23__gxx_exception_cleanup19_Unwind_Reason_CodeP17_Unwind_Exception+0x10>
   10440:	fdc5a503          	lw	a0,-36(a1)
   10444:	37bd                	jal	103b2 <_ZN10__cxxabiv111__terminateEPFvvE>
   10446:	577d                	li	a4,-1
   10448:	fc058693          	addi	a3,a1,-64
   1044c:	0f50000f          	fence	iorw,ow
   10450:	04e6a7af          	amoadd.w.aq	a5,a4,(a3)
   10454:	17fd                	addi	a5,a5,-1
   10456:	ef81                	bnez	a5,1046e <_ZL23__gxx_exception_cleanup19_Unwind_Reason_CodeP17_Unwind_Exception+0x38>
   10458:	fd45a783          	lw	a5,-44(a1)
   1045c:	02058513          	addi	a0,a1,32
   10460:	c781                	beqz	a5,10468 <_ZL23__gxx_exception_cleanup19_Unwind_Reason_CodeP17_Unwind_Exception+0x32>
   10462:	c62a                	sw	a0,12(sp)
   10464:	9782                	jalr	a5
   10466:	4532                	lw	a0,12(sp)
   10468:	40f2                	lw	ra,28(sp)
   1046a:	6105                	addi	sp,sp,32
   1046c:	bd45                	j	1031c <__cxa_free_exception>
   1046e:	40f2                	lw	ra,28(sp)
   10470:	6105                	addi	sp,sp,32
   10472:	8082                	ret

00010474 <__cxa_init_primary_exception>:
   10474:	1141                	addi	sp,sp,-16
   10476:	c606                	sw	ra,12(sp)
   10478:	c422                	sw	s0,8(sp)
   1047a:	c226                	sw	s1,4(sp)
   1047c:	fa052023          	sw	zero,-96(a0)
   10480:	f8050493          	addi	s1,a0,-128
   10484:	d88c                	sw	a1,48(s1)
   10486:	d8d0                	sw	a2,52(s1)
   10488:	842a                	mv	s0,a0
   1048a:	3f69                	jal	10424 <_ZSt14get_unexpectedv>
   1048c:	dc88                	sw	a0,56(s1)
   1048e:	379d                	jal	103f4 <_ZSt13get_terminatev>
   10490:	1a01a703          	lw	a4,416(gp) # 293e0 <__SDATA_BEGIN__>
   10494:	1a41a783          	lw	a5,420(gp) # 293e4 <__SDATA_BEGIN__+0x4>
   10498:	dcc8                	sw	a0,60(s1)
   1049a:	fee42023          	sw	a4,-32(s0)
   1049e:	fef42223          	sw	a5,-28(s0)
   104a2:	40b2                	lw	ra,12(sp)
   104a4:	fa040513          	addi	a0,s0,-96
   104a8:	67c1                	lui	a5,0x10
   104aa:	4422                	lw	s0,8(sp)
   104ac:	43678793          	addi	a5,a5,1078 # 10436 <_ZL23__gxx_exception_cleanup19_Unwind_Reason_CodeP17_Unwind_Exception>
   104b0:	d4bc                	sw	a5,104(s1)
   104b2:	4492                	lw	s1,4(sp)
   104b4:	0141                	addi	sp,sp,16
   104b6:	8082                	ret

000104b8 <__cxa_throw>:
   104b8:	1101                	addi	sp,sp,-32
   104ba:	ce06                	sw	ra,28(sp)
   104bc:	cc22                	sw	s0,24(sp)
   104be:	c62e                	sw	a1,12(sp)
   104c0:	842a                	mv	s0,a0
   104c2:	c432                	sw	a2,8(sp)
   104c4:	002040ef          	jal	ra,144c6 <__cxa_get_globals>
   104c8:	415c                	lw	a5,4(a0)
   104ca:	4622                	lw	a2,8(sp)
   104cc:	45b2                	lw	a1,12(sp)
   104ce:	0785                	addi	a5,a5,1
   104d0:	c15c                	sw	a5,4(a0)
   104d2:	8522                	mv	a0,s0
   104d4:	3745                	jal	10474 <__cxa_init_primary_exception>
   104d6:	4785                	li	a5,1
   104d8:	04050413          	addi	s0,a0,64
   104dc:	c11c                	sw	a5,0(a0)
   104de:	8522                	mv	a0,s0
   104e0:	24b050ef          	jal	ra,15f2a <_Unwind_RaiseException>
   104e4:	8522                	mv	a0,s0
   104e6:	6ef030ef          	jal	ra,143d4 <__cxa_begin_catch>
   104ea:	3f11                	jal	103fe <_ZSt9terminatev>

000104ec <__cxa_rethrow>:
   104ec:	1141                	addi	sp,sp,-16
   104ee:	c606                	sw	ra,12(sp)
   104f0:	c422                	sw	s0,8(sp)
   104f2:	7d5030ef          	jal	ra,144c6 <__cxa_get_globals>
   104f6:	4158                	lw	a4,4(a0)
   104f8:	411c                	lw	a5,0(a0)
   104fa:	0705                	addi	a4,a4,1
   104fc:	c158                	sw	a4,4(a0)
   104fe:	cb95                	beqz	a5,10532 <__cxa_rethrow+0x46>
   10500:	5b98                	lw	a4,48(a5)
   10502:	1a81a683          	lw	a3,424(gp) # 293e8 <__SDATA_BEGIN__+0x8>
   10506:	5bd0                	lw	a2,52(a5)
   10508:	1ac1a583          	lw	a1,428(gp) # 293ec <__SDATA_BEGIN__+0xc>
   1050c:	96ba                	add	a3,a3,a4
   1050e:	00e6b733          	sltu	a4,a3,a4
   10512:	962e                	add	a2,a2,a1
   10514:	9732                	add	a4,a4,a2
   10516:	e701                	bnez	a4,1051e <__cxa_rethrow+0x32>
   10518:	4705                	li	a4,1
   1051a:	00d77d63          	bgeu	a4,a3,10534 <__cxa_rethrow+0x48>
   1051e:	00052023          	sw	zero,0(a0)
   10522:	03078413          	addi	s0,a5,48
   10526:	8522                	mv	a0,s0
   10528:	6eb050ef          	jal	ra,16412 <_Unwind_Resume_or_Rethrow>
   1052c:	8522                	mv	a0,s0
   1052e:	6a7030ef          	jal	ra,143d4 <__cxa_begin_catch>
   10532:	35f1                	jal	103fe <_ZSt9terminatev>
   10534:	4bd8                	lw	a4,20(a5)
   10536:	40e00733          	neg	a4,a4
   1053a:	cbd8                	sw	a4,20(a5)
   1053c:	b7dd                	j	10522 <__cxa_rethrow+0x36>

0001053e <_ZSt15set_new_handlerPFvvE>:
   1053e:	22418793          	addi	a5,gp,548 # 29464 <_ZN12_GLOBAL__N_113__new_handlerE>
   10542:	0f50000f          	fence	iorw,ow
   10546:	0ca7a52f          	amoswap.w.aq	a0,a0,(a5)
   1054a:	8082                	ret

0001054c <_ZSt15get_new_handlerv>:
   1054c:	2241a503          	lw	a0,548(gp) # 29464 <_ZN12_GLOBAL__N_113__new_handlerE>
   10550:	0ff0000f          	fence
   10554:	8082                	ret

00010556 <__cxa_pure_virtual>:
   10556:	000245b7          	lui	a1,0x24
   1055a:	1141                	addi	sp,sp,-16
   1055c:	466d                	li	a2,27
   1055e:	af858593          	addi	a1,a1,-1288 # 23af8 <_ZTVN10__cxxabiv119__foreign_exceptionE+0x14>
   10562:	4509                	li	a0,2
   10564:	c606                	sw	ra,12(sp)
   10566:	41a0a0ef          	jal	ra,1a980 <write>
   1056a:	3d51                	jal	103fe <_ZSt9terminatev>

0001056c <__cxa_deleted_virtual>:
   1056c:	000245b7          	lui	a1,0x24
   10570:	1141                	addi	sp,sp,-16
   10572:	4679                	li	a2,30
   10574:	b1458593          	addi	a1,a1,-1260 # 23b14 <_ZTVN10__cxxabiv119__foreign_exceptionE+0x30>
   10578:	4509                	li	a0,2
   1057a:	c606                	sw	ra,12(sp)
   1057c:	4040a0ef          	jal	ra,1a980 <write>
   10580:	3dbd                	jal	103fe <_ZSt9terminatev>

00010582 <_ZN10__cxxabiv120__si_class_type_infoD1Ev>:
   10582:	000247b7          	lui	a5,0x24
   10586:	b7078793          	addi	a5,a5,-1168 # 23b70 <_ZTVN10__cxxabiv120__si_class_type_infoE+0x8>
   1058a:	c11c                	sw	a5,0(a0)
   1058c:	acd5                	j	10880 <_ZN10__cxxabiv117__class_type_infoD1Ev>

0001058e <_ZN10__cxxabiv120__si_class_type_infoD0Ev>:
   1058e:	1141                	addi	sp,sp,-16
   10590:	c422                	sw	s0,8(sp)
   10592:	c606                	sw	ra,12(sp)
   10594:	842a                	mv	s0,a0
   10596:	37f5                	jal	10582 <_ZN10__cxxabiv120__si_class_type_infoD1Ev>
   10598:	8522                	mv	a0,s0
   1059a:	4422                	lw	s0,8(sp)
   1059c:	40b2                	lw	ra,12(sp)
   1059e:	45b1                	li	a1,12
   105a0:	0141                	addi	sp,sp,16
   105a2:	b981                	j	101f2 <_ZdlPvj>

000105a4 <_ZNKSt9type_infoeqERKS_>:
   105a4:	415c                	lw	a5,4(a0)
   105a6:	41cc                	lw	a1,4(a1)
   105a8:	02b78363          	beq	a5,a1,105ce <_ZNKSt9type_infoeqERKS_+0x2a>
   105ac:	0007c683          	lbu	a3,0(a5)
   105b0:	02a00713          	li	a4,42
   105b4:	4501                	li	a0,0
   105b6:	00e68e63          	beq	a3,a4,105d2 <_ZNKSt9type_infoeqERKS_+0x2e>
   105ba:	1141                	addi	sp,sp,-16
   105bc:	853e                	mv	a0,a5
   105be:	c606                	sw	ra,12(sp)
   105c0:	478080ef          	jal	ra,18a38 <strcmp>
   105c4:	40b2                	lw	ra,12(sp)
   105c6:	00153513          	seqz	a0,a0
   105ca:	0141                	addi	sp,sp,16
   105cc:	8082                	ret
   105ce:	4505                	li	a0,1
   105d0:	8082                	ret
   105d2:	8082                	ret

000105d4 <_ZNK10__cxxabiv120__si_class_type_info20__do_find_public_srcEiPKvPKNS_17__class_type_infoES2_>:
   105d4:	1101                	addi	sp,sp,-32
   105d6:	cc22                	sw	s0,24(sp)
   105d8:	ca26                	sw	s1,20(sp)
   105da:	ce06                	sw	ra,28(sp)
   105dc:	84aa                	mv	s1,a0
   105de:	842e                	mv	s0,a1
   105e0:	00c71b63          	bne	a4,a2,105f6 <_ZNK10__cxxabiv120__si_class_type_info20__do_find_public_srcEiPKvPKNS_17__class_type_infoES2_+0x22>
   105e4:	85b6                	mv	a1,a3
   105e6:	c63a                	sw	a4,12(sp)
   105e8:	c432                	sw	a2,8(sp)
   105ea:	c236                	sw	a3,4(sp)
   105ec:	3f65                	jal	105a4 <_ZNKSt9type_infoeqERKS_>
   105ee:	4692                	lw	a3,4(sp)
   105f0:	4622                	lw	a2,8(sp)
   105f2:	4732                	lw	a4,12(sp)
   105f4:	e911                	bnez	a0,10608 <_ZNK10__cxxabiv120__si_class_type_info20__do_find_public_srcEiPKvPKNS_17__class_type_infoES2_+0x34>
   105f6:	4488                	lw	a0,8(s1)
   105f8:	85a2                	mv	a1,s0
   105fa:	4462                	lw	s0,24(sp)
   105fc:	411c                	lw	a5,0(a0)
   105fe:	40f2                	lw	ra,28(sp)
   10600:	44d2                	lw	s1,20(sp)
   10602:	539c                	lw	a5,32(a5)
   10604:	6105                	addi	sp,sp,32
   10606:	8782                	jr	a5
   10608:	40f2                	lw	ra,28(sp)
   1060a:	4462                	lw	s0,24(sp)
   1060c:	44d2                	lw	s1,20(sp)
   1060e:	4519                	li	a0,6
   10610:	6105                	addi	sp,sp,32
   10612:	8082                	ret

00010614 <_ZNK10__cxxabiv120__si_class_type_info12__do_dyncastEiNS_17__class_type_info10__sub_kindEPKS1_PKvS4_S6_RNS1_16__dyncast_resultE>:
   10614:	7179                	addi	sp,sp,-48
   10616:	d04a                	sw	s2,32(sp)
   10618:	892e                	mv	s2,a1
   1061a:	85b6                	mv	a1,a3
   1061c:	d422                	sw	s0,40(sp)
   1061e:	d226                	sw	s1,36(sp)
   10620:	ce4e                	sw	s3,28(sp)
   10622:	cc52                	sw	s4,24(sp)
   10624:	ca56                	sw	s5,20(sp)
   10626:	c85a                	sw	s6,16(sp)
   10628:	c65e                	sw	s7,12(sp)
   1062a:	d606                	sw	ra,44(sp)
   1062c:	8baa                	mv	s7,a0
   1062e:	89b2                	mv	s3,a2
   10630:	8ab6                	mv	s5,a3
   10632:	843a                	mv	s0,a4
   10634:	8b3e                	mv	s6,a5
   10636:	8a42                	mv	s4,a6
   10638:	84c6                	mv	s1,a7
   1063a:	37ad                	jal	105a4 <_ZNKSt9type_infoeqERKS_>
   1063c:	cd05                	beqz	a0,10674 <_ZNK10__cxxabiv120__si_class_type_info12__do_dyncastEiNS_17__class_type_info10__sub_kindEPKS1_PKvS4_S6_RNS1_16__dyncast_resultE+0x60>
   1063e:	c080                	sw	s0,0(s1)
   10640:	0134a223          	sw	s3,4(s1)
   10644:	02094463          	bltz	s2,1066c <_ZNK10__cxxabiv120__si_class_type_info12__do_dyncastEiNS_17__class_type_info10__sub_kindEPKS1_PKvS4_S6_RNS1_16__dyncast_resultE+0x58>
   10648:	944a                	add	s0,s0,s2
   1064a:	4799                	li	a5,6
   1064c:	008a0363          	beq	s4,s0,10652 <_ZNK10__cxxabiv120__si_class_type_info12__do_dyncastEiNS_17__class_type_info10__sub_kindEPKS1_PKvS4_S6_RNS1_16__dyncast_resultE+0x3e>
   10650:	4785                	li	a5,1
   10652:	c4dc                	sw	a5,12(s1)
   10654:	50b2                	lw	ra,44(sp)
   10656:	5422                	lw	s0,40(sp)
   10658:	5492                	lw	s1,36(sp)
   1065a:	5902                	lw	s2,32(sp)
   1065c:	49f2                	lw	s3,28(sp)
   1065e:	4a62                	lw	s4,24(sp)
   10660:	4ad2                	lw	s5,20(sp)
   10662:	4b42                	lw	s6,16(sp)
   10664:	4bb2                	lw	s7,12(sp)
   10666:	4501                	li	a0,0
   10668:	6145                	addi	sp,sp,48
   1066a:	8082                	ret
   1066c:	57f9                	li	a5,-2
   1066e:	fef913e3          	bne	s2,a5,10654 <_ZNK10__cxxabiv120__si_class_type_info12__do_dyncastEiNS_17__class_type_info10__sub_kindEPKS1_PKvS4_S6_RNS1_16__dyncast_resultE+0x40>
   10672:	bff9                	j	10650 <_ZNK10__cxxabiv120__si_class_type_info12__do_dyncastEiNS_17__class_type_info10__sub_kindEPKS1_PKvS4_S6_RNS1_16__dyncast_resultE+0x3c>
   10674:	01441963          	bne	s0,s4,10686 <_ZNK10__cxxabiv120__si_class_type_info12__do_dyncastEiNS_17__class_type_info10__sub_kindEPKS1_PKvS4_S6_RNS1_16__dyncast_resultE+0x72>
   10678:	85da                	mv	a1,s6
   1067a:	855e                	mv	a0,s7
   1067c:	3725                	jal	105a4 <_ZNKSt9type_infoeqERKS_>
   1067e:	c501                	beqz	a0,10686 <_ZNK10__cxxabiv120__si_class_type_info12__do_dyncastEiNS_17__class_type_info10__sub_kindEPKS1_PKvS4_S6_RNS1_16__dyncast_resultE+0x72>
   10680:	0134a423          	sw	s3,8(s1)
   10684:	bfc1                	j	10654 <_ZNK10__cxxabiv120__si_class_type_info12__do_dyncastEiNS_17__class_type_info10__sub_kindEPKS1_PKvS4_S6_RNS1_16__dyncast_resultE+0x40>
   10686:	008ba503          	lw	a0,8(s7)
   1068a:	8722                	mv	a4,s0
   1068c:	5422                	lw	s0,40(sp)
   1068e:	411c                	lw	a5,0(a0)
   10690:	50b2                	lw	ra,44(sp)
   10692:	4bb2                	lw	s7,12(sp)
   10694:	01c7a303          	lw	t1,28(a5)
   10698:	88a6                	mv	a7,s1
   1069a:	8852                	mv	a6,s4
   1069c:	5492                	lw	s1,36(sp)
   1069e:	4a62                	lw	s4,24(sp)
   106a0:	87da                	mv	a5,s6
   106a2:	86d6                	mv	a3,s5
   106a4:	4b42                	lw	s6,16(sp)
   106a6:	4ad2                	lw	s5,20(sp)
   106a8:	864e                	mv	a2,s3
   106aa:	85ca                	mv	a1,s2
   106ac:	49f2                	lw	s3,28(sp)
   106ae:	5902                	lw	s2,32(sp)
   106b0:	6145                	addi	sp,sp,48
   106b2:	8302                	jr	t1

000106b4 <_ZNK10__cxxabiv120__si_class_type_info11__do_upcastEPKNS_17__class_type_infoEPKvRNS1_15__upcast_resultE>:
   106b4:	1101                	addi	sp,sp,-32
   106b6:	cc22                	sw	s0,24(sp)
   106b8:	ca26                	sw	s1,20(sp)
   106ba:	c84a                	sw	s2,16(sp)
   106bc:	c64e                	sw	s3,12(sp)
   106be:	ce06                	sw	ra,28(sp)
   106c0:	89aa                	mv	s3,a0
   106c2:	842e                	mv	s0,a1
   106c4:	84b2                	mv	s1,a2
   106c6:	8936                	mv	s2,a3
   106c8:	2495                	jal	1092c <_ZNK10__cxxabiv117__class_type_info11__do_upcastEPKS0_PKvRNS0_15__upcast_resultE>
   106ca:	ed19                	bnez	a0,106e8 <_ZNK10__cxxabiv120__si_class_type_info11__do_upcastEPKNS_17__class_type_infoEPKvRNS1_15__upcast_resultE+0x34>
   106cc:	0089a503          	lw	a0,8(s3)
   106d0:	85a2                	mv	a1,s0
   106d2:	4462                	lw	s0,24(sp)
   106d4:	411c                	lw	a5,0(a0)
   106d6:	40f2                	lw	ra,28(sp)
   106d8:	49b2                	lw	s3,12(sp)
   106da:	4f9c                	lw	a5,24(a5)
   106dc:	86ca                	mv	a3,s2
   106de:	8626                	mv	a2,s1
   106e0:	4942                	lw	s2,16(sp)
   106e2:	44d2                	lw	s1,20(sp)
   106e4:	6105                	addi	sp,sp,32
   106e6:	8782                	jr	a5
   106e8:	40f2                	lw	ra,28(sp)
   106ea:	4462                	lw	s0,24(sp)
   106ec:	44d2                	lw	s1,20(sp)
   106ee:	4942                	lw	s2,16(sp)
   106f0:	49b2                	lw	s3,12(sp)
   106f2:	6105                	addi	sp,sp,32
   106f4:	8082                	ret

000106f6 <_ZNSt9type_infoD1Ev>:
   106f6:	8082                	ret

000106f8 <_ZNKSt9type_info14__is_pointer_pEv>:
   106f8:	4501                	li	a0,0
   106fa:	8082                	ret

000106fc <_ZNKSt9type_info11__do_upcastEPKN10__cxxabiv117__class_type_infoEPPv>:
   106fc:	4501                	li	a0,0
   106fe:	8082                	ret

00010700 <_ZNSt9type_infoD0Ev>:
   10700:	45a1                	li	a1,8
   10702:	bcc5                	j	101f2 <_ZdlPvj>

00010704 <_ZNKSt9type_info10__do_catchEPKS_PPvj>:
   10704:	415c                	lw	a5,4(a0)
   10706:	41cc                	lw	a1,4(a1)
   10708:	02b78363          	beq	a5,a1,1072e <_ZNKSt9type_info10__do_catchEPKS_PPvj+0x2a>
   1070c:	0007c683          	lbu	a3,0(a5)
   10710:	02a00713          	li	a4,42
   10714:	4501                	li	a0,0
   10716:	00e68e63          	beq	a3,a4,10732 <_ZNKSt9type_info10__do_catchEPKS_PPvj+0x2e>
   1071a:	1141                	addi	sp,sp,-16
   1071c:	853e                	mv	a0,a5
   1071e:	c606                	sw	ra,12(sp)
   10720:	318080ef          	jal	ra,18a38 <strcmp>
   10724:	40b2                	lw	ra,12(sp)
   10726:	00153513          	seqz	a0,a0
   1072a:	0141                	addi	sp,sp,16
   1072c:	8082                	ret
   1072e:	4505                	li	a0,1
   10730:	8082                	ret
   10732:	8082                	ret

00010734 <_ZN9__gnu_cxx27__verbose_terminate_handlerEv>:
   10734:	22818793          	addi	a5,gp,552 # 29468 <_ZZN9__gnu_cxx27__verbose_terminate_handlerEvE11terminating>
   10738:	0007c703          	lbu	a4,0(a5)
   1073c:	7179                	addi	sp,sp,-48
   1073e:	d422                	sw	s0,40(sp)
   10740:	d606                	sw	ra,44(sp)
   10742:	d226                	sw	s1,36(sp)
   10744:	d04a                	sw	s2,32(sp)
   10746:	cf01                	beqz	a4,1075e <_ZN9__gnu_cxx27__verbose_terminate_handlerEv+0x2a>
   10748:	2141a783          	lw	a5,532(gp) # 29454 <_impure_ptr>
   1074c:	00024537          	lui	a0,0x24
   10750:	bc450513          	addi	a0,a0,-1084 # 23bc4 <_ZTVSt9type_info+0x20>
   10754:	47cc                	lw	a1,12(a5)
   10756:	531060ef          	jal	ra,17486 <fputs>
   1075a:	42f060ef          	jal	ra,17388 <abort>
   1075e:	4705                	li	a4,1
   10760:	00e78023          	sb	a4,0(a5)
   10764:	3da040ef          	jal	ra,14b3e <__cxa_current_exception_type>
   10768:	c951                	beqz	a0,107fc <_ZN9__gnu_cxx27__verbose_terminate_handlerEv+0xc8>
   1076a:	4144                	lw	s1,4(a0)
   1076c:	02a00793          	li	a5,42
   10770:	0004c703          	lbu	a4,0(s1)
   10774:	00f71363          	bne	a4,a5,1077a <_ZN9__gnu_cxx27__verbose_terminate_handlerEv+0x46>
   10778:	0485                	addi	s1,s1,1
   1077a:	57fd                	li	a5,-1
   1077c:	0874                	addi	a3,sp,28
   1077e:	4601                	li	a2,0
   10780:	4581                	li	a1,0
   10782:	8526                	mv	a0,s1
   10784:	ce3e                	sw	a5,28(sp)
   10786:	37b030ef          	jal	ra,14300 <__cxa_demangle>
   1078a:	2141a783          	lw	a5,532(gp) # 29454 <_impure_ptr>
   1078e:	892a                	mv	s2,a0
   10790:	00024537          	lui	a0,0x24
   10794:	47cc                	lw	a1,12(a5)
   10796:	be450513          	addi	a0,a0,-1052 # 23be4 <_ZTVSt9type_info+0x40>
   1079a:	4ed060ef          	jal	ra,17486 <fputs>
   1079e:	47f2                	lw	a5,28(sp)
   107a0:	eba9                	bnez	a5,107f2 <_ZN9__gnu_cxx27__verbose_terminate_handlerEv+0xbe>
   107a2:	2141a783          	lw	a5,532(gp) # 29454 <_impure_ptr>
   107a6:	854a                	mv	a0,s2
   107a8:	47cc                	lw	a1,12(a5)
   107aa:	4dd060ef          	jal	ra,17486 <fputs>
   107ae:	2141a783          	lw	a5,532(gp) # 29454 <_impure_ptr>
   107b2:	00024537          	lui	a0,0x24
   107b6:	c1850513          	addi	a0,a0,-1000 # 23c18 <_ZTVSt9type_info+0x74>
   107ba:	47cc                	lw	a1,12(a5)
   107bc:	4cb060ef          	jal	ra,17486 <fputs>
   107c0:	47f2                	lw	a5,28(sp)
   107c2:	e781                	bnez	a5,107ca <_ZN9__gnu_cxx27__verbose_terminate_handlerEv+0x96>
   107c4:	854a                	mv	a0,s2
   107c6:	070070ef          	jal	ra,17836 <free>
   107ca:	330d                	jal	104ec <__cxa_rethrow>
   107cc:	4785                	li	a5,1
   107ce:	04f59e63          	bne	a1,a5,1082a <_ZN9__gnu_cxx27__verbose_terminate_handlerEv+0xf6>
   107d2:	403030ef          	jal	ra,143d4 <__cxa_begin_catch>
   107d6:	411c                	lw	a5,0(a0)
   107d8:	479c                	lw	a5,8(a5)
   107da:	9782                	jalr	a5
   107dc:	2141a783          	lw	a5,532(gp) # 29454 <_impure_ptr>
   107e0:	84aa                	mv	s1,a0
   107e2:	00024537          	lui	a0,0x24
   107e6:	47cc                	lw	a1,12(a5)
   107e8:	c4c50513          	addi	a0,a0,-948 # 23c4c <_ZTVSt9type_info+0xa8>
   107ec:	49b060ef          	jal	ra,17486 <fputs>
   107f0:	a831                	j	1080c <_ZN9__gnu_cxx27__verbose_terminate_handlerEv+0xd8>
   107f2:	2141a783          	lw	a5,532(gp) # 29454 <_impure_ptr>
   107f6:	8526                	mv	a0,s1
   107f8:	47cc                	lw	a1,12(a5)
   107fa:	bf45                	j	107aa <_ZN9__gnu_cxx27__verbose_terminate_handlerEv+0x76>
   107fc:	2141a783          	lw	a5,532(gp) # 29454 <_impure_ptr>
   10800:	00024537          	lui	a0,0x24
   10804:	c1c50513          	addi	a0,a0,-996 # 23c1c <_ZTVSt9type_info+0x78>
   10808:	47cc                	lw	a1,12(a5)
   1080a:	b7b1                	j	10756 <_ZN9__gnu_cxx27__verbose_terminate_handlerEv+0x22>
   1080c:	2141a783          	lw	a5,532(gp) # 29454 <_impure_ptr>
   10810:	8526                	mv	a0,s1
   10812:	47cc                	lw	a1,12(a5)
   10814:	473060ef          	jal	ra,17486 <fputs>
   10818:	2141a783          	lw	a5,532(gp) # 29454 <_impure_ptr>
   1081c:	4529                	li	a0,10
   1081e:	47cc                	lw	a1,12(a5)
   10820:	3c9060ef          	jal	ra,173e8 <fputc>
   10824:	41b030ef          	jal	ra,1443e <__cxa_end_catch>
   10828:	bf0d                	j	1075a <_ZN9__gnu_cxx27__verbose_terminate_handlerEv+0x26>
   1082a:	3ab030ef          	jal	ra,143d4 <__cxa_begin_catch>
   1082e:	411030ef          	jal	ra,1443e <__cxa_end_catch>
   10832:	b725                	j	1075a <_ZN9__gnu_cxx27__verbose_terminate_handlerEv+0x26>
   10834:	c62a                	sw	a0,12(sp)
   10836:	409030ef          	jal	ra,1443e <__cxa_end_catch>
   1083a:	4532                	lw	a0,12(sp)
   1083c:	295050ef          	jal	ra,162d0 <_Unwind_Resume>

00010840 <_ZNK10__cxxabiv117__class_type_info11__do_upcastEPKS0_PPv>:
   10840:	1101                	addi	sp,sp,-32
   10842:	47c1                	li	a5,16
   10844:	c43e                	sw	a5,8(sp)
   10846:	411c                	lw	a5,0(a0)
   10848:	cc22                	sw	s0,24(sp)
   1084a:	8432                	mv	s0,a2
   1084c:	4f9c                	lw	a5,24(a5)
   1084e:	4210                	lw	a2,0(a2)
   10850:	ce06                	sw	ra,28(sp)
   10852:	c002                	sw	zero,0(sp)
   10854:	c202                	sw	zero,4(sp)
   10856:	c602                	sw	zero,12(sp)
   10858:	868a                	mv	a3,sp
   1085a:	9782                	jalr	a5
   1085c:	4792                	lw	a5,4(sp)
   1085e:	4719                	li	a4,6
   10860:	4501                	li	a0,0
   10862:	8b99                	andi	a5,a5,6
   10864:	00e79563          	bne	a5,a4,1086e <_ZNK10__cxxabiv117__class_type_info11__do_upcastEPKS0_PPv+0x2e>
   10868:	4782                	lw	a5,0(sp)
   1086a:	4505                	li	a0,1
   1086c:	c01c                	sw	a5,0(s0)
   1086e:	40f2                	lw	ra,28(sp)
   10870:	4462                	lw	s0,24(sp)
   10872:	6105                	addi	sp,sp,32
   10874:	8082                	ret

00010876 <_ZNK10__cxxabiv117__class_type_info20__do_find_public_srcEiPKvPKS0_S2_>:
   10876:	4505                	li	a0,1
   10878:	00c71363          	bne	a4,a2,1087e <_ZNK10__cxxabiv117__class_type_info20__do_find_public_srcEiPKvPKS0_S2_+0x8>
   1087c:	4519                	li	a0,6
   1087e:	8082                	ret

00010880 <_ZN10__cxxabiv117__class_type_infoD1Ev>:
   10880:	000247b7          	lui	a5,0x24
   10884:	c9078793          	addi	a5,a5,-880 # 23c90 <_ZTVN10__cxxabiv117__class_type_infoE+0x8>
   10888:	c11c                	sw	a5,0(a0)
   1088a:	b5b5                	j	106f6 <_ZNSt9type_infoD1Ev>

0001088c <_ZN10__cxxabiv117__class_type_infoD0Ev>:
   1088c:	1141                	addi	sp,sp,-16
   1088e:	c422                	sw	s0,8(sp)
   10890:	c606                	sw	ra,12(sp)
   10892:	842a                	mv	s0,a0
   10894:	37f5                	jal	10880 <_ZN10__cxxabiv117__class_type_infoD1Ev>
   10896:	8522                	mv	a0,s0
   10898:	4422                	lw	s0,8(sp)
   1089a:	40b2                	lw	ra,12(sp)
   1089c:	45a1                	li	a1,8
   1089e:	0141                	addi	sp,sp,16
   108a0:	953ff06f          	j	101f2 <_ZdlPvj>

000108a4 <_ZNK10__cxxabiv117__class_type_info10__do_catchEPKSt9type_infoPPvj>:
   108a4:	1101                	addi	sp,sp,-32
   108a6:	cc22                	sw	s0,24(sp)
   108a8:	ca26                	sw	s1,20(sp)
   108aa:	c84a                	sw	s2,16(sp)
   108ac:	ce06                	sw	ra,28(sp)
   108ae:	84aa                	mv	s1,a0
   108b0:	842e                	mv	s0,a1
   108b2:	c632                	sw	a2,12(sp)
   108b4:	8936                	mv	s2,a3
   108b6:	31fd                	jal	105a4 <_ZNKSt9type_infoeqERKS_>
   108b8:	ed19                	bnez	a0,108d6 <_ZNK10__cxxabiv117__class_type_info10__do_catchEPKSt9type_infoPPvj+0x32>
   108ba:	478d                	li	a5,3
   108bc:	0127ed63          	bltu	a5,s2,108d6 <_ZNK10__cxxabiv117__class_type_info10__do_catchEPKSt9type_infoPPvj+0x32>
   108c0:	401c                	lw	a5,0(s0)
   108c2:	8522                	mv	a0,s0
   108c4:	4462                	lw	s0,24(sp)
   108c6:	4632                	lw	a2,12(sp)
   108c8:	40f2                	lw	ra,28(sp)
   108ca:	4942                	lw	s2,16(sp)
   108cc:	4bdc                	lw	a5,20(a5)
   108ce:	85a6                	mv	a1,s1
   108d0:	44d2                	lw	s1,20(sp)
   108d2:	6105                	addi	sp,sp,32
   108d4:	8782                	jr	a5
   108d6:	40f2                	lw	ra,28(sp)
   108d8:	4462                	lw	s0,24(sp)
   108da:	44d2                	lw	s1,20(sp)
   108dc:	4942                	lw	s2,16(sp)
   108de:	6105                	addi	sp,sp,32
   108e0:	8082                	ret

000108e2 <_ZNK10__cxxabiv117__class_type_info12__do_dyncastEiNS0_10__sub_kindEPKS0_PKvS3_S5_RNS0_16__dyncast_resultE>:
   108e2:	1101                	addi	sp,sp,-32
   108e4:	cc22                	sw	s0,24(sp)
   108e6:	ca26                	sw	s1,20(sp)
   108e8:	c84a                	sw	s2,16(sp)
   108ea:	c64e                	sw	s3,12(sp)
   108ec:	c452                	sw	s4,8(sp)
   108ee:	ce06                	sw	ra,28(sp)
   108f0:	89aa                	mv	s3,a0
   108f2:	84b2                	mv	s1,a2
   108f4:	8a36                	mv	s4,a3
   108f6:	893a                	mv	s2,a4
   108f8:	8446                	mv	s0,a7
   108fa:	01071f63          	bne	a4,a6,10918 <_ZNK10__cxxabiv117__class_type_info12__do_dyncastEiNS0_10__sub_kindEPKS0_PKvS3_S5_RNS0_16__dyncast_resultE+0x36>
   108fe:	85be                	mv	a1,a5
   10900:	3155                	jal	105a4 <_ZNKSt9type_infoeqERKS_>
   10902:	c919                	beqz	a0,10918 <_ZNK10__cxxabiv117__class_type_info12__do_dyncastEiNS0_10__sub_kindEPKS0_PKvS3_S5_RNS0_16__dyncast_resultE+0x36>
   10904:	c404                	sw	s1,8(s0)
   10906:	40f2                	lw	ra,28(sp)
   10908:	4462                	lw	s0,24(sp)
   1090a:	44d2                	lw	s1,20(sp)
   1090c:	4942                	lw	s2,16(sp)
   1090e:	49b2                	lw	s3,12(sp)
   10910:	4a22                	lw	s4,8(sp)
   10912:	4501                	li	a0,0
   10914:	6105                	addi	sp,sp,32
   10916:	8082                	ret
   10918:	85d2                	mv	a1,s4
   1091a:	854e                	mv	a0,s3
   1091c:	3161                	jal	105a4 <_ZNKSt9type_infoeqERKS_>
   1091e:	d565                	beqz	a0,10906 <_ZNK10__cxxabiv117__class_type_info12__do_dyncastEiNS0_10__sub_kindEPKS0_PKvS3_S5_RNS0_16__dyncast_resultE+0x24>
   10920:	4785                	li	a5,1
   10922:	01242023          	sw	s2,0(s0)
   10926:	c044                	sw	s1,4(s0)
   10928:	c45c                	sw	a5,12(s0)
   1092a:	bff1                	j	10906 <_ZNK10__cxxabiv117__class_type_info12__do_dyncastEiNS0_10__sub_kindEPKS0_PKvS3_S5_RNS0_16__dyncast_resultE+0x24>

0001092c <_ZNK10__cxxabiv117__class_type_info11__do_upcastEPKS0_PKvRNS0_15__upcast_resultE>:
   1092c:	1141                	addi	sp,sp,-16
   1092e:	c422                	sw	s0,8(sp)
   10930:	c226                	sw	s1,4(sp)
   10932:	c606                	sw	ra,12(sp)
   10934:	84b2                	mv	s1,a2
   10936:	8436                	mv	s0,a3
   10938:	31b5                	jal	105a4 <_ZNKSt9type_infoeqERKS_>
   1093a:	c511                	beqz	a0,10946 <_ZNK10__cxxabiv117__class_type_info11__do_upcastEPKS0_PKvRNS0_15__upcast_resultE+0x1a>
   1093c:	47a1                	li	a5,8
   1093e:	c45c                	sw	a5,12(s0)
   10940:	4799                	li	a5,6
   10942:	c004                	sw	s1,0(s0)
   10944:	c05c                	sw	a5,4(s0)
   10946:	40b2                	lw	ra,12(sp)
   10948:	4422                	lw	s0,8(sp)
   1094a:	4492                	lw	s1,4(sp)
   1094c:	0141                	addi	sp,sp,16
   1094e:	8082                	ret

00010950 <is_fnqual_component_type>:
   10950:	04d00793          	li	a5,77
   10954:	00f50d63          	beq	a0,a5,1096e <is_fnqual_component_type+0x1e>
   10958:	00a7e663          	bltu	a5,a0,10964 <is_fnqual_component_type+0x14>
   1095c:	1511                	addi	a0,a0,-28
   1095e:	00553513          	sltiu	a0,a0,5
   10962:	8082                	ret
   10964:	fb150513          	addi	a0,a0,-79
   10968:	00253513          	sltiu	a0,a0,2
   1096c:	8082                	ret
   1096e:	4505                	li	a0,1
   10970:	8082                	ret

00010972 <d_make_empty>:
   10972:	4954                	lw	a3,20(a0)
   10974:	4d1c                	lw	a5,24(a0)
   10976:	872a                	mv	a4,a0
   10978:	00f6de63          	bge	a3,a5,10994 <d_make_empty+0x22>
   1097c:	4551                	li	a0,20
   1097e:	02a68533          	mul	a0,a3,a0
   10982:	4b1c                	lw	a5,16(a4)
   10984:	0685                	addi	a3,a3,1
   10986:	953e                	add	a0,a0,a5
   10988:	00052223          	sw	zero,4(a0)
   1098c:	00052423          	sw	zero,8(a0)
   10990:	cb54                	sw	a3,20(a4)
   10992:	8082                	ret
   10994:	4501                	li	a0,0
   10996:	8082                	ret

00010998 <d_make_comp>:
   10998:	1141                	addi	sp,sp,-16
   1099a:	c606                	sw	ra,12(sp)
   1099c:	c422                	sw	s0,8(sp)
   1099e:	c226                	sw	s1,4(sp)
   109a0:	c04a                	sw	s2,0(sp)
   109a2:	fff58793          	addi	a5,a1,-1
   109a6:	04f00713          	li	a4,79
   109aa:	02f76f63          	bltu	a4,a5,109e8 <d_make_comp+0x50>
   109ae:	00024737          	lui	a4,0x24
   109b2:	078a                	slli	a5,a5,0x2
   109b4:	cb470713          	addi	a4,a4,-844 # 23cb4 <_ZTVN10__cxxabiv117__class_type_infoE+0x2c>
   109b8:	97ba                	add	a5,a5,a4
   109ba:	439c                	lw	a5,0(a5)
   109bc:	892e                	mv	s2,a1
   109be:	8432                	mv	s0,a2
   109c0:	84b6                	mv	s1,a3
   109c2:	8782                	jr	a5
   109c4:	ca19                	beqz	a2,109da <d_make_comp+0x42>
   109c6:	c08d                	beqz	s1,109e8 <d_make_comp+0x50>
   109c8:	376d                	jal	10972 <d_make_empty>
   109ca:	cd19                	beqz	a0,109e8 <d_make_comp+0x50>
   109cc:	c540                	sw	s0,12(a0)
   109ce:	01252023          	sw	s2,0(a0)
   109d2:	c904                	sw	s1,16(a0)
   109d4:	842a                	mv	s0,a0
   109d6:	a011                	j	109da <d_make_comp+0x42>
   109d8:	fa65                	bnez	a2,109c8 <d_make_comp+0x30>
   109da:	40b2                	lw	ra,12(sp)
   109dc:	8522                	mv	a0,s0
   109de:	4422                	lw	s0,8(sp)
   109e0:	4492                	lw	s1,4(sp)
   109e2:	4902                	lw	s2,0(sp)
   109e4:	0141                	addi	sp,sp,16
   109e6:	8082                	ret
   109e8:	4401                	li	s0,0
   109ea:	bfc5                	j	109da <d_make_comp+0x42>

000109ec <d_make_name>:
   109ec:	1141                	addi	sp,sp,-16
   109ee:	c422                	sw	s0,8(sp)
   109f0:	c226                	sw	s1,4(sp)
   109f2:	c606                	sw	ra,12(sp)
   109f4:	84ae                	mv	s1,a1
   109f6:	8432                	mv	s0,a2
   109f8:	3fad                	jal	10972 <d_make_empty>
   109fa:	cd01                	beqz	a0,10a12 <d_make_name+0x26>
   109fc:	c085                	beqz	s1,10a1c <d_make_name+0x30>
   109fe:	00805f63          	blez	s0,10a1c <d_make_name+0x30>
   10a02:	00052223          	sw	zero,4(a0)
   10a06:	00052423          	sw	zero,8(a0)
   10a0a:	00052023          	sw	zero,0(a0)
   10a0e:	c544                	sw	s1,12(a0)
   10a10:	c900                	sw	s0,16(a0)
   10a12:	40b2                	lw	ra,12(sp)
   10a14:	4422                	lw	s0,8(sp)
   10a16:	4492                	lw	s1,4(sp)
   10a18:	0141                	addi	sp,sp,16
   10a1a:	8082                	ret
   10a1c:	4501                	li	a0,0
   10a1e:	bfd5                	j	10a12 <d_make_name+0x26>

00010a20 <d_make_builtin_type>:
   10a20:	1141                	addi	sp,sp,-16
   10a22:	c422                	sw	s0,8(sp)
   10a24:	c606                	sw	ra,12(sp)
   10a26:	842e                	mv	s0,a1
   10a28:	37a9                	jal	10972 <d_make_empty>
   10a2a:	c509                	beqz	a0,10a34 <d_make_builtin_type+0x14>
   10a2c:	02700793          	li	a5,39
   10a30:	c11c                	sw	a5,0(a0)
   10a32:	c540                	sw	s0,12(a0)
   10a34:	40b2                	lw	ra,12(sp)
   10a36:	4422                	lw	s0,8(sp)
   10a38:	0141                	addi	sp,sp,16
   10a3a:	8082                	ret

00010a3c <d_number>:
   10a3c:	4554                	lw	a3,12(a0)
   10a3e:	06e00613          	li	a2,110
   10a42:	872a                	mv	a4,a0
   10a44:	0006c783          	lbu	a5,0(a3)
   10a48:	4801                	li	a6,0
   10a4a:	00c79863          	bne	a5,a2,10a5a <d_number+0x1e>
   10a4e:	00168793          	addi	a5,a3,1
   10a52:	c55c                	sw	a5,12(a0)
   10a54:	0016c783          	lbu	a5,1(a3)
   10a58:	4805                	li	a6,1
   10a5a:	800006b7          	lui	a3,0x80000
   10a5e:	4501                	li	a0,0
   10a60:	48a5                	li	a7,9
   10a62:	fff6c693          	not	a3,a3
   10a66:	45a9                	li	a1,10
   10a68:	fd078793          	addi	a5,a5,-48
   10a6c:	0ff7f613          	zext.b	a2,a5
   10a70:	00c8f763          	bgeu	a7,a2,10a7e <d_number+0x42>
   10a74:	02080663          	beqz	a6,10aa0 <d_number+0x64>
   10a78:	40a00533          	neg	a0,a0
   10a7c:	8082                	ret
   10a7e:	40f68633          	sub	a2,a3,a5
   10a82:	02b64633          	div	a2,a2,a1
   10a86:	00a64c63          	blt	a2,a0,10a9e <d_number+0x62>
   10a8a:	02b50533          	mul	a0,a0,a1
   10a8e:	953e                	add	a0,a0,a5
   10a90:	475c                	lw	a5,12(a4)
   10a92:	00178613          	addi	a2,a5,1
   10a96:	c750                	sw	a2,12(a4)
   10a98:	0017c783          	lbu	a5,1(a5)
   10a9c:	b7f1                	j	10a68 <d_number+0x2c>
   10a9e:	557d                	li	a0,-1
   10aa0:	8082                	ret

00010aa2 <d_number_component>:
   10aa2:	1141                	addi	sp,sp,-16
   10aa4:	c422                	sw	s0,8(sp)
   10aa6:	c226                	sw	s1,4(sp)
   10aa8:	c606                	sw	ra,12(sp)
   10aaa:	84aa                	mv	s1,a0
   10aac:	35d9                	jal	10972 <d_make_empty>
   10aae:	842a                	mv	s0,a0
   10ab0:	c519                	beqz	a0,10abe <d_number_component+0x1c>
   10ab2:	04200793          	li	a5,66
   10ab6:	c11c                	sw	a5,0(a0)
   10ab8:	8526                	mv	a0,s1
   10aba:	3749                	jal	10a3c <d_number>
   10abc:	c448                	sw	a0,12(s0)
   10abe:	40b2                	lw	ra,12(sp)
   10ac0:	8522                	mv	a0,s0
   10ac2:	4422                	lw	s0,8(sp)
   10ac4:	4492                	lw	s1,4(sp)
   10ac6:	0141                	addi	sp,sp,16
   10ac8:	8082                	ret

00010aca <d_call_offset>:
   10aca:	1141                	addi	sp,sp,-16
   10acc:	c422                	sw	s0,8(sp)
   10ace:	c606                	sw	ra,12(sp)
   10ad0:	842a                	mv	s0,a0
   10ad2:	ed99                	bnez	a1,10af0 <d_call_offset+0x26>
   10ad4:	455c                	lw	a5,12(a0)
   10ad6:	0007c703          	lbu	a4,0(a5)
   10ada:	e711                	bnez	a4,10ae6 <d_call_offset+0x1c>
   10adc:	4501                	li	a0,0
   10ade:	40b2                	lw	ra,12(sp)
   10ae0:	4422                	lw	s0,8(sp)
   10ae2:	0141                	addi	sp,sp,16
   10ae4:	8082                	ret
   10ae6:	00178713          	addi	a4,a5,1
   10aea:	c558                	sw	a4,12(a0)
   10aec:	0007c583          	lbu	a1,0(a5)
   10af0:	06800793          	li	a5,104
   10af4:	00f59f63          	bne	a1,a5,10b12 <d_call_offset+0x48>
   10af8:	8522                	mv	a0,s0
   10afa:	3789                	jal	10a3c <d_number>
   10afc:	445c                	lw	a5,12(s0)
   10afe:	05f00713          	li	a4,95
   10b02:	0007c683          	lbu	a3,0(a5)
   10b06:	fce69be3          	bne	a3,a4,10adc <d_call_offset+0x12>
   10b0a:	0785                	addi	a5,a5,1
   10b0c:	c45c                	sw	a5,12(s0)
   10b0e:	4505                	li	a0,1
   10b10:	b7f9                	j	10ade <d_call_offset+0x14>
   10b12:	07600793          	li	a5,118
   10b16:	fcf593e3          	bne	a1,a5,10adc <d_call_offset+0x12>
   10b1a:	8522                	mv	a0,s0
   10b1c:	3705                	jal	10a3c <d_number>
   10b1e:	445c                	lw	a5,12(s0)
   10b20:	05f00713          	li	a4,95
   10b24:	0007c683          	lbu	a3,0(a5)
   10b28:	fae69ae3          	bne	a3,a4,10adc <d_call_offset+0x12>
   10b2c:	0785                	addi	a5,a5,1
   10b2e:	c45c                	sw	a5,12(s0)
   10b30:	b7e1                	j	10af8 <d_call_offset+0x2e>

00010b32 <d_ref_qualifier>:
   10b32:	455c                	lw	a5,12(a0)
   10b34:	05200693          	li	a3,82
   10b38:	862e                	mv	a2,a1
   10b3a:	0007c703          	lbu	a4,0(a5)
   10b3e:	00d70c63          	beq	a4,a3,10b56 <d_ref_qualifier+0x24>
   10b42:	04f00693          	li	a3,79
   10b46:	02d71063          	bne	a4,a3,10b66 <d_ref_qualifier+0x34>
   10b4a:	5558                	lw	a4,44(a0)
   10b4c:	02000593          	li	a1,32
   10b50:	070d                	addi	a4,a4,3
   10b52:	d558                	sw	a4,44(a0)
   10b54:	a029                	j	10b5e <d_ref_qualifier+0x2c>
   10b56:	5558                	lw	a4,44(a0)
   10b58:	45fd                	li	a1,31
   10b5a:	0709                	addi	a4,a4,2
   10b5c:	d558                	sw	a4,44(a0)
   10b5e:	0785                	addi	a5,a5,1
   10b60:	c55c                	sw	a5,12(a0)
   10b62:	4681                	li	a3,0
   10b64:	bd15                	j	10998 <d_make_comp>
   10b66:	852e                	mv	a0,a1
   10b68:	8082                	ret

00010b6a <d_compact_number>:
   10b6a:	455c                	lw	a5,12(a0)
   10b6c:	1141                	addi	sp,sp,-16
   10b6e:	c422                	sw	s0,8(sp)
   10b70:	c606                	sw	ra,12(sp)
   10b72:	0007c783          	lbu	a5,0(a5)
   10b76:	05f00713          	li	a4,95
   10b7a:	842a                	mv	s0,a0
   10b7c:	02e78963          	beq	a5,a4,10bae <d_compact_number+0x44>
   10b80:	06e00713          	li	a4,110
   10b84:	00e79763          	bne	a5,a4,10b92 <d_compact_number+0x28>
   10b88:	557d                	li	a0,-1
   10b8a:	40b2                	lw	ra,12(sp)
   10b8c:	4422                	lw	s0,8(sp)
   10b8e:	0141                	addi	sp,sp,16
   10b90:	8082                	ret
   10b92:	356d                	jal	10a3c <d_number>
   10b94:	0505                	addi	a0,a0,1
   10b96:	fe0549e3          	bltz	a0,10b88 <d_compact_number+0x1e>
   10b9a:	445c                	lw	a5,12(s0)
   10b9c:	05f00713          	li	a4,95
   10ba0:	0007c683          	lbu	a3,0(a5)
   10ba4:	fee692e3          	bne	a3,a4,10b88 <d_compact_number+0x1e>
   10ba8:	0785                	addi	a5,a5,1
   10baa:	c45c                	sw	a5,12(s0)
   10bac:	bff9                	j	10b8a <d_compact_number+0x20>
   10bae:	4501                	li	a0,0
   10bb0:	b7ed                	j	10b9a <d_compact_number+0x30>

00010bb2 <d_template_param>:
   10bb2:	455c                	lw	a5,12(a0)
   10bb4:	05400713          	li	a4,84
   10bb8:	0007c683          	lbu	a3,0(a5)
   10bbc:	00e68463          	beq	a3,a4,10bc4 <d_template_param+0x12>
   10bc0:	4501                	li	a0,0
   10bc2:	8082                	ret
   10bc4:	1141                	addi	sp,sp,-16
   10bc6:	c422                	sw	s0,8(sp)
   10bc8:	c226                	sw	s1,4(sp)
   10bca:	c606                	sw	ra,12(sp)
   10bcc:	0785                	addi	a5,a5,1
   10bce:	c55c                	sw	a5,12(a0)
   10bd0:	842a                	mv	s0,a0
   10bd2:	3f61                	jal	10b6a <d_compact_number>
   10bd4:	84aa                	mv	s1,a0
   10bd6:	4501                	li	a0,0
   10bd8:	0004c863          	bltz	s1,10be8 <d_template_param+0x36>
   10bdc:	8522                	mv	a0,s0
   10bde:	3b51                	jal	10972 <d_make_empty>
   10be0:	c501                	beqz	a0,10be8 <d_template_param+0x36>
   10be2:	4795                	li	a5,5
   10be4:	c11c                	sw	a5,0(a0)
   10be6:	c544                	sw	s1,12(a0)
   10be8:	40b2                	lw	ra,12(sp)
   10bea:	4422                	lw	s0,8(sp)
   10bec:	4492                	lw	s1,4(sp)
   10bee:	0141                	addi	sp,sp,16
   10bf0:	8082                	ret

00010bf2 <d_add_substitution>:
   10bf2:	87aa                	mv	a5,a0
   10bf4:	cd99                	beqz	a1,10c12 <d_add_substitution+0x20>
   10bf6:	5118                	lw	a4,32(a0)
   10bf8:	5154                	lw	a3,36(a0)
   10bfa:	4501                	li	a0,0
   10bfc:	00d75c63          	bge	a4,a3,10c14 <d_add_substitution+0x22>
   10c00:	4fd4                	lw	a3,28(a5)
   10c02:	00271613          	slli	a2,a4,0x2
   10c06:	0705                	addi	a4,a4,1
   10c08:	96b2                	add	a3,a3,a2
   10c0a:	c28c                	sw	a1,0(a3)
   10c0c:	d398                	sw	a4,32(a5)
   10c0e:	4505                	li	a0,1
   10c10:	8082                	ret
   10c12:	4501                	li	a0,0
   10c14:	8082                	ret

00010c16 <d_count_templates_scopes>:
   10c16:	1141                	addi	sp,sp,-16
   10c18:	000246b7          	lui	a3,0x24
   10c1c:	c422                	sw	s0,8(sp)
   10c1e:	c226                	sw	s1,4(sp)
   10c20:	842e                	mv	s0,a1
   10c22:	84aa                	mv	s1,a0
   10c24:	c606                	sw	ra,12(sp)
   10c26:	4605                	li	a2,1
   10c28:	40000593          	li	a1,1024
   10c2c:	04f00513          	li	a0,79
   10c30:	df468693          	addi	a3,a3,-524 # 23df4 <_ZTVN10__cxxabiv117__class_type_infoE+0x16c>
   10c34:	c429                	beqz	s0,10c7e <d_count_templates_scopes+0x68>
   10c36:	441c                	lw	a5,8(s0)
   10c38:	04f64363          	blt	a2,a5,10c7e <d_count_templates_scopes+0x68>
   10c3c:	11c4a703          	lw	a4,284(s1)
   10c40:	02e5cf63          	blt	a1,a4,10c7e <d_count_templates_scopes+0x68>
   10c44:	0785                	addi	a5,a5,1
   10c46:	c41c                	sw	a5,8(s0)
   10c48:	401c                	lw	a5,0(s0)
   10c4a:	17fd                	addi	a5,a5,-1
   10c4c:	02f56963          	bltu	a0,a5,10c7e <d_count_templates_scopes+0x68>
   10c50:	078a                	slli	a5,a5,0x2
   10c52:	97b6                	add	a5,a5,a3
   10c54:	439c                	lw	a5,0(a5)
   10c56:	8782                	jr	a5
   10c58:	1444a783          	lw	a5,324(s1)
   10c5c:	0785                	addi	a5,a5,1
   10c5e:	14f4a223          	sw	a5,324(s1)
   10c62:	444c                	lw	a1,12(s0)
   10c64:	0705                	addi	a4,a4,1
   10c66:	10e4ae23          	sw	a4,284(s1)
   10c6a:	8526                	mv	a0,s1
   10c6c:	376d                	jal	10c16 <d_count_templates_scopes>
   10c6e:	480c                	lw	a1,16(s0)
   10c70:	8526                	mv	a0,s1
   10c72:	3755                	jal	10c16 <d_count_templates_scopes>
   10c74:	11c4a783          	lw	a5,284(s1)
   10c78:	17fd                	addi	a5,a5,-1
   10c7a:	10f4ae23          	sw	a5,284(s1)
   10c7e:	40b2                	lw	ra,12(sp)
   10c80:	4422                	lw	s0,8(sp)
   10c82:	4492                	lw	s1,4(sp)
   10c84:	0141                	addi	sp,sp,16
   10c86:	8082                	ret
   10c88:	445c                	lw	a5,12(s0)
   10c8a:	4394                	lw	a3,0(a5)
   10c8c:	4795                	li	a5,5
   10c8e:	fcf69ae3          	bne	a3,a5,10c62 <d_count_templates_scopes+0x4c>
   10c92:	1384a783          	lw	a5,312(s1)
   10c96:	0785                	addi	a5,a5,1
   10c98:	12f4ac23          	sw	a5,312(s1)
   10c9c:	b7d9                	j	10c62 <d_count_templates_scopes+0x4c>
   10c9e:	4800                	lw	s0,16(s0)
   10ca0:	bf51                	j	10c34 <d_count_templates_scopes+0x1e>
   10ca2:	4440                	lw	s0,12(s0)
   10ca4:	bf41                	j	10c34 <d_count_templates_scopes+0x1e>

00010ca6 <d_print_flush>:
   10ca6:	1141                	addi	sp,sp,-16
   10ca8:	c422                	sw	s0,8(sp)
   10caa:	10050413          	addi	s0,a0,256
   10cae:	400c                	lw	a1,0(s0)
   10cb0:	c226                	sw	s1,4(sp)
   10cb2:	c606                	sw	ra,12(sp)
   10cb4:	00b507b3          	add	a5,a0,a1
   10cb8:	00078023          	sb	zero,0(a5)
   10cbc:	441c                	lw	a5,8(s0)
   10cbe:	4450                	lw	a2,12(s0)
   10cc0:	84aa                	mv	s1,a0
   10cc2:	9782                	jalr	a5
   10cc4:	541c                	lw	a5,40(s0)
   10cc6:	1004a023          	sw	zero,256(s1)
   10cca:	40b2                	lw	ra,12(sp)
   10ccc:	0785                	addi	a5,a5,1
   10cce:	d41c                	sw	a5,40(s0)
   10cd0:	4422                	lw	s0,8(sp)
   10cd2:	4492                	lw	s1,4(sp)
   10cd4:	0141                	addi	sp,sp,16
   10cd6:	8082                	ret

00010cd8 <d_append_char>:
   10cd8:	10052703          	lw	a4,256(a0)
   10cdc:	1141                	addi	sp,sp,-16
   10cde:	c422                	sw	s0,8(sp)
   10ce0:	c226                	sw	s1,4(sp)
   10ce2:	c606                	sw	ra,12(sp)
   10ce4:	0ff00793          	li	a5,255
   10ce8:	842a                	mv	s0,a0
   10cea:	84ae                	mv	s1,a1
   10cec:	00f71363          	bne	a4,a5,10cf2 <d_append_char+0x1a>
   10cf0:	3f5d                	jal	10ca6 <d_print_flush>
   10cf2:	10042783          	lw	a5,256(s0)
   10cf6:	00178713          	addi	a4,a5,1
   10cfa:	10e42023          	sw	a4,256(s0)
   10cfe:	97a2                	add	a5,a5,s0
   10d00:	00978023          	sb	s1,0(a5)
   10d04:	10940223          	sb	s1,260(s0)
   10d08:	40b2                	lw	ra,12(sp)
   10d0a:	4422                	lw	s0,8(sp)
   10d0c:	4492                	lw	s1,4(sp)
   10d0e:	0141                	addi	sp,sp,16
   10d10:	8082                	ret

00010d12 <d_append_buffer>:
   10d12:	1141                	addi	sp,sp,-16
   10d14:	c422                	sw	s0,8(sp)
   10d16:	c226                	sw	s1,4(sp)
   10d18:	c04a                	sw	s2,0(sp)
   10d1a:	c606                	sw	ra,12(sp)
   10d1c:	892a                	mv	s2,a0
   10d1e:	842e                	mv	s0,a1
   10d20:	00c584b3          	add	s1,a1,a2
   10d24:	00941863          	bne	s0,s1,10d34 <d_append_buffer+0x22>
   10d28:	40b2                	lw	ra,12(sp)
   10d2a:	4422                	lw	s0,8(sp)
   10d2c:	4492                	lw	s1,4(sp)
   10d2e:	4902                	lw	s2,0(sp)
   10d30:	0141                	addi	sp,sp,16
   10d32:	8082                	ret
   10d34:	00044583          	lbu	a1,0(s0)
   10d38:	854a                	mv	a0,s2
   10d3a:	0405                	addi	s0,s0,1
   10d3c:	3f71                	jal	10cd8 <d_append_char>
   10d3e:	b7dd                	j	10d24 <d_append_buffer+0x12>

00010d40 <d_pack_length>:
   10d40:	87aa                	mv	a5,a0
   10d42:	02f00693          	li	a3,47
   10d46:	4501                	li	a0,0
   10d48:	c791                	beqz	a5,10d54 <d_pack_length+0x14>
   10d4a:	4398                	lw	a4,0(a5)
   10d4c:	00d71463          	bne	a4,a3,10d54 <d_pack_length+0x14>
   10d50:	47d8                	lw	a4,12(a5)
   10d52:	e311                	bnez	a4,10d56 <d_pack_length+0x16>
   10d54:	8082                	ret
   10d56:	4b9c                	lw	a5,16(a5)
   10d58:	0505                	addi	a0,a0,1
   10d5a:	b7fd                	j	10d48 <d_pack_length+0x8>

00010d5c <d_append_string>:
   10d5c:	1101                	addi	sp,sp,-32
   10d5e:	cc22                	sw	s0,24(sp)
   10d60:	842a                	mv	s0,a0
   10d62:	852e                	mv	a0,a1
   10d64:	ce06                	sw	ra,28(sp)
   10d66:	c62e                	sw	a1,12(sp)
   10d68:	667070ef          	jal	ra,18bce <strlen>
   10d6c:	862a                	mv	a2,a0
   10d6e:	8522                	mv	a0,s0
   10d70:	4462                	lw	s0,24(sp)
   10d72:	45b2                	lw	a1,12(sp)
   10d74:	40f2                	lw	ra,28(sp)
   10d76:	6105                	addi	sp,sp,32
   10d78:	bf69                	j	10d12 <d_append_buffer>

00010d7a <d_source_name>:
   10d7a:	1141                	addi	sp,sp,-16
   10d7c:	c422                	sw	s0,8(sp)
   10d7e:	c606                	sw	ra,12(sp)
   10d80:	c226                	sw	s1,4(sp)
   10d82:	c04a                	sw	s2,0(sp)
   10d84:	842a                	mv	s0,a0
   10d86:	395d                	jal	10a3c <d_number>
   10d88:	08a05f63          	blez	a0,10e26 <d_source_name+0xac>
   10d8c:	00c42903          	lw	s2,12(s0)
   10d90:	405c                	lw	a5,4(s0)
   10d92:	84aa                	mv	s1,a0
   10d94:	4501                	li	a0,0
   10d96:	412787b3          	sub	a5,a5,s2
   10d9a:	0697cc63          	blt	a5,s1,10e12 <d_source_name+0x98>
   10d9e:	4418                	lw	a4,8(s0)
   10da0:	009907b3          	add	a5,s2,s1
   10da4:	c45c                	sw	a5,12(s0)
   10da6:	8b11                	andi	a4,a4,4
   10da8:	cb09                	beqz	a4,10dba <d_source_name+0x40>
   10daa:	0007c683          	lbu	a3,0(a5)
   10dae:	02400713          	li	a4,36
   10db2:	00e69463          	bne	a3,a4,10dba <d_source_name+0x40>
   10db6:	0785                	addi	a5,a5,1
   10db8:	c45c                	sw	a5,12(s0)
   10dba:	47a5                	li	a5,9
   10dbc:	0697d263          	bge	a5,s1,10e20 <d_source_name+0xa6>
   10dc0:	000255b7          	lui	a1,0x25
   10dc4:	4621                	li	a2,8
   10dc6:	bd458593          	addi	a1,a1,-1068 # 24bd4 <cplus_demangle_operators+0x460>
   10dca:	854a                	mv	a0,s2
   10dcc:	0b2070ef          	jal	ra,17e7e <memcmp>
   10dd0:	e921                	bnez	a0,10e20 <d_source_name+0xa6>
   10dd2:	00894783          	lbu	a5,8(s2)
   10dd6:	02e00713          	li	a4,46
   10dda:	00e78a63          	beq	a5,a4,10dee <d_source_name+0x74>
   10dde:	05f00713          	li	a4,95
   10de2:	00e78663          	beq	a5,a4,10dee <d_source_name+0x74>
   10de6:	02400713          	li	a4,36
   10dea:	02e79b63          	bne	a5,a4,10e20 <d_source_name+0xa6>
   10dee:	00994703          	lbu	a4,9(s2)
   10df2:	04e00793          	li	a5,78
   10df6:	02f71563          	bne	a4,a5,10e20 <d_source_name+0xa6>
   10dfa:	5448                	lw	a0,44(s0)
   10dfc:	000255b7          	lui	a1,0x25
   10e00:	4655                	li	a2,21
   10e02:	0559                	addi	a0,a0,22
   10e04:	409504b3          	sub	s1,a0,s1
   10e08:	d444                	sw	s1,44(s0)
   10e0a:	be058593          	addi	a1,a1,-1056 # 24be0 <cplus_demangle_operators+0x46c>
   10e0e:	8522                	mv	a0,s0
   10e10:	3ef1                	jal	109ec <d_make_name>
   10e12:	d408                	sw	a0,40(s0)
   10e14:	40b2                	lw	ra,12(sp)
   10e16:	4422                	lw	s0,8(sp)
   10e18:	4492                	lw	s1,4(sp)
   10e1a:	4902                	lw	s2,0(sp)
   10e1c:	0141                	addi	sp,sp,16
   10e1e:	8082                	ret
   10e20:	8626                	mv	a2,s1
   10e22:	85ca                	mv	a1,s2
   10e24:	b7ed                	j	10e0e <d_source_name+0x94>
   10e26:	4501                	li	a0,0
   10e28:	b7f5                	j	10e14 <d_source_name+0x9a>

00010e2a <d_abi_tags>:
   10e2a:	1101                	addi	sp,sp,-32
   10e2c:	ca26                	sw	s1,20(sp)
   10e2e:	5504                	lw	s1,40(a0)
   10e30:	cc22                	sw	s0,24(sp)
   10e32:	c84a                	sw	s2,16(sp)
   10e34:	ce06                	sw	ra,28(sp)
   10e36:	842a                	mv	s0,a0
   10e38:	862e                	mv	a2,a1
   10e3a:	04200913          	li	s2,66
   10e3e:	445c                	lw	a5,12(s0)
   10e40:	0007c703          	lbu	a4,0(a5)
   10e44:	01270a63          	beq	a4,s2,10e58 <d_abi_tags+0x2e>
   10e48:	d404                	sw	s1,40(s0)
   10e4a:	40f2                	lw	ra,28(sp)
   10e4c:	4462                	lw	s0,24(sp)
   10e4e:	44d2                	lw	s1,20(sp)
   10e50:	4942                	lw	s2,16(sp)
   10e52:	8532                	mv	a0,a2
   10e54:	6105                	addi	sp,sp,32
   10e56:	8082                	ret
   10e58:	0785                	addi	a5,a5,1
   10e5a:	c45c                	sw	a5,12(s0)
   10e5c:	8522                	mv	a0,s0
   10e5e:	c632                	sw	a2,12(sp)
   10e60:	3f29                	jal	10d7a <d_source_name>
   10e62:	4632                	lw	a2,12(sp)
   10e64:	86aa                	mv	a3,a0
   10e66:	04c00593          	li	a1,76
   10e6a:	8522                	mv	a0,s0
   10e6c:	3635                	jal	10998 <d_make_comp>
   10e6e:	862a                	mv	a2,a0
   10e70:	b7f9                	j	10e3e <d_abi_tags+0x14>

00010e72 <d_append_num>:
   10e72:	7179                	addi	sp,sp,-48
   10e74:	862e                	mv	a2,a1
   10e76:	000255b7          	lui	a1,0x25
   10e7a:	d422                	sw	s0,40(sp)
   10e7c:	bf858593          	addi	a1,a1,-1032 # 24bf8 <cplus_demangle_operators+0x484>
   10e80:	842a                	mv	s0,a0
   10e82:	0048                	addi	a0,sp,4
   10e84:	d606                	sw	ra,44(sp)
   10e86:	36b070ef          	jal	ra,189f0 <sprintf>
   10e8a:	004c                	addi	a1,sp,4
   10e8c:	8522                	mv	a0,s0
   10e8e:	35f9                	jal	10d5c <d_append_string>
   10e90:	50b2                	lw	ra,44(sp)
   10e92:	5422                	lw	s0,40(sp)
   10e94:	6145                	addi	sp,sp,48
   10e96:	8082                	ret

00010e98 <d_discriminator>:
   10e98:	455c                	lw	a5,12(a0)
   10e9a:	05f00693          	li	a3,95
   10e9e:	0007c703          	lbu	a4,0(a5)
   10ea2:	00d70463          	beq	a4,a3,10eaa <d_discriminator+0x12>
   10ea6:	4505                	li	a0,1
   10ea8:	8082                	ret
   10eaa:	1141                	addi	sp,sp,-16
   10eac:	c422                	sw	s0,8(sp)
   10eae:	c226                	sw	s1,4(sp)
   10eb0:	c606                	sw	ra,12(sp)
   10eb2:	00178693          	addi	a3,a5,1
   10eb6:	c554                	sw	a3,12(a0)
   10eb8:	0017c683          	lbu	a3,1(a5)
   10ebc:	842a                	mv	s0,a0
   10ebe:	4485                	li	s1,1
   10ec0:	00e69563          	bne	a3,a4,10eca <d_discriminator+0x32>
   10ec4:	0789                	addi	a5,a5,2
   10ec6:	c55c                	sw	a5,12(a0)
   10ec8:	4489                	li	s1,2
   10eca:	8522                	mv	a0,s0
   10ecc:	3e85                	jal	10a3c <d_number>
   10ece:	87aa                	mv	a5,a0
   10ed0:	4501                	li	a0,0
   10ed2:	0207c263          	bltz	a5,10ef6 <d_discriminator+0x5e>
   10ed6:	4709                	li	a4,2
   10ed8:	00e49e63          	bne	s1,a4,10ef4 <d_discriminator+0x5c>
   10edc:	4725                	li	a4,9
   10ede:	00f75b63          	bge	a4,a5,10ef4 <d_discriminator+0x5c>
   10ee2:	445c                	lw	a5,12(s0)
   10ee4:	05f00713          	li	a4,95
   10ee8:	0007c683          	lbu	a3,0(a5)
   10eec:	00e69563          	bne	a3,a4,10ef6 <d_discriminator+0x5e>
   10ef0:	0785                	addi	a5,a5,1
   10ef2:	c45c                	sw	a5,12(s0)
   10ef4:	4505                	li	a0,1
   10ef6:	40b2                	lw	ra,12(sp)
   10ef8:	4422                	lw	s0,8(sp)
   10efa:	4492                	lw	s1,4(sp)
   10efc:	0141                	addi	sp,sp,16
   10efe:	8082                	ret

00010f00 <d_index_template_argument>:
   10f00:	02f00793          	li	a5,47
   10f04:	0005d963          	bgez	a1,10f16 <d_index_template_argument+0x16>
   10f08:	8082                	ret
   10f0a:	4118                	lw	a4,0(a0)
   10f0c:	00f71763          	bne	a4,a5,10f1a <d_index_template_argument+0x1a>
   10f10:	c599                	beqz	a1,10f1e <d_index_template_argument+0x1e>
   10f12:	4908                	lw	a0,16(a0)
   10f14:	15fd                	addi	a1,a1,-1
   10f16:	f975                	bnez	a0,10f0a <d_index_template_argument+0xa>
   10f18:	8082                	ret
   10f1a:	4501                	li	a0,0
   10f1c:	8082                	ret
   10f1e:	4548                	lw	a0,12(a0)
   10f20:	b7e5                	j	10f08 <d_index_template_argument+0x8>

00010f22 <d_lookup_template_argument>:
   10f22:	11052783          	lw	a5,272(a0)
   10f26:	c789                	beqz	a5,10f30 <d_lookup_template_argument+0xe>
   10f28:	43dc                	lw	a5,4(a5)
   10f2a:	45cc                	lw	a1,12(a1)
   10f2c:	4b88                	lw	a0,16(a5)
   10f2e:	bfc9                	j	10f00 <d_index_template_argument>
   10f30:	4785                	li	a5,1
   10f32:	10f52c23          	sw	a5,280(a0)
   10f36:	4501                	li	a0,0
   10f38:	8082                	ret

00010f3a <d_find_pack>:
   10f3a:	1101                	addi	sp,sp,-32
   10f3c:	c84a                	sw	s2,16(sp)
   10f3e:	c64e                	sw	s3,12(sp)
   10f40:	c452                	sw	s4,8(sp)
   10f42:	06718937          	lui	s2,0x6718
   10f46:	001089b7          	lui	s3,0x108
   10f4a:	00024a37          	lui	s4,0x24
   10f4e:	cc22                	sw	s0,24(sp)
   10f50:	ca26                	sw	s1,20(sp)
   10f52:	c256                	sw	s5,4(sp)
   10f54:	c05a                	sw	s6,0(sp)
   10f56:	ce06                	sw	ra,28(sp)
   10f58:	84aa                	mv	s1,a0
   10f5a:	842e                	mv	s0,a1
   10f5c:	4aa1                	li	s5,8
   10f5e:	02c00b13          	li	s6,44
   10f62:	0905                	addi	s2,s2,1
   10f64:	0985                	addi	s3,s3,1
   10f66:	f34a0a13          	addi	s4,s4,-204 # 23f34 <_ZTVN10__cxxabiv117__class_type_infoE+0x2ac>
   10f6a:	c005                	beqz	s0,10f8a <d_find_pack+0x50>
   10f6c:	401c                	lw	a5,0(s0)
   10f6e:	02fafa63          	bgeu	s5,a5,10fa2 <d_find_pack+0x68>
   10f72:	02fb6c63          	bltu	s6,a5,10faa <d_find_pack+0x70>
   10f76:	475d                	li	a4,23
   10f78:	02f77e63          	bgeu	a4,a5,10fb4 <d_find_pack+0x7a>
   10f7c:	17a1                	addi	a5,a5,-24
   10f7e:	4705                	li	a4,1
   10f80:	00f717b3          	sll	a5,a4,a5
   10f84:	0137f7b3          	and	a5,a5,s3
   10f88:	c795                	beqz	a5,10fb4 <d_find_pack+0x7a>
   10f8a:	4501                	li	a0,0
   10f8c:	a091                	j	10fd0 <d_find_pack+0x96>
   10f8e:	4705                	li	a4,1
   10f90:	00f717b3          	sll	a5,a4,a5
   10f94:	0127f733          	and	a4,a5,s2
   10f98:	fb6d                	bnez	a4,10f8a <d_find_pack+0x50>
   10f9a:	8b89                	andi	a5,a5,2
   10f9c:	cf81                	beqz	a5,10fb4 <d_find_pack+0x7a>
   10f9e:	4800                	lw	s0,16(s0)
   10fa0:	b7e9                	j	10f6a <d_find_pack+0x30>
   10fa2:	078a                	slli	a5,a5,0x2
   10fa4:	97d2                	add	a5,a5,s4
   10fa6:	439c                	lw	a5,0(a5)
   10fa8:	8782                	jr	a5
   10faa:	fce78793          	addi	a5,a5,-50
   10fae:	4769                	li	a4,26
   10fb0:	fcf77fe3          	bgeu	a4,a5,10f8e <d_find_pack+0x54>
   10fb4:	444c                	lw	a1,12(s0)
   10fb6:	8526                	mv	a0,s1
   10fb8:	3749                	jal	10f3a <d_find_pack>
   10fba:	d175                	beqz	a0,10f9e <d_find_pack+0x64>
   10fbc:	a811                	j	10fd0 <d_find_pack+0x96>
   10fbe:	85a2                	mv	a1,s0
   10fc0:	8526                	mv	a0,s1
   10fc2:	3785                	jal	10f22 <d_lookup_template_argument>
   10fc4:	d179                	beqz	a0,10f8a <d_find_pack+0x50>
   10fc6:	4118                	lw	a4,0(a0)
   10fc8:	02f00793          	li	a5,47
   10fcc:	faf71fe3          	bne	a4,a5,10f8a <d_find_pack+0x50>
   10fd0:	40f2                	lw	ra,28(sp)
   10fd2:	4462                	lw	s0,24(sp)
   10fd4:	44d2                	lw	s1,20(sp)
   10fd6:	4942                	lw	s2,16(sp)
   10fd8:	49b2                	lw	s3,12(sp)
   10fda:	4a22                	lw	s4,8(sp)
   10fdc:	4a92                	lw	s5,4(sp)
   10fde:	4b02                	lw	s6,0(sp)
   10fe0:	6105                	addi	sp,sp,32
   10fe2:	8082                	ret

00010fe4 <d_growable_string_callback_adapter>:
   10fe4:	1101                	addi	sp,sp,-32
   10fe6:	4258                	lw	a4,4(a2)
   10fe8:	ca26                	sw	s1,20(sp)
   10fea:	4604                	lw	s1,8(a2)
   10fec:	00158793          	addi	a5,a1,1
   10ff0:	cc22                	sw	s0,24(sp)
   10ff2:	c84a                	sw	s2,16(sp)
   10ff4:	c64e                	sw	s3,12(sp)
   10ff6:	ce06                	sw	ra,28(sp)
   10ff8:	97ba                	add	a5,a5,a4
   10ffa:	89aa                	mv	s3,a0
   10ffc:	892e                	mv	s2,a1
   10ffe:	8432                	mv	s0,a2
   11000:	04f4f363          	bgeu	s1,a5,11046 <d_growable_string_callback_adapter+0x62>
   11004:	4658                	lw	a4,12(a2)
   11006:	e70d                	bnez	a4,11030 <d_growable_string_callback_adapter+0x4c>
   11008:	e091                	bnez	s1,1100c <d_growable_string_callback_adapter+0x28>
   1100a:	4489                	li	s1,2
   1100c:	02f4e963          	bltu	s1,a5,1103e <d_growable_string_callback_adapter+0x5a>
   11010:	4008                	lw	a0,0(s0)
   11012:	85a6                	mv	a1,s1
   11014:	1e8070ef          	jal	ra,181fc <realloc>
   11018:	e50d                	bnez	a0,11042 <d_growable_string_callback_adapter+0x5e>
   1101a:	4008                	lw	a0,0(s0)
   1101c:	01b060ef          	jal	ra,17836 <free>
   11020:	4785                	li	a5,1
   11022:	00042023          	sw	zero,0(s0)
   11026:	00042223          	sw	zero,4(s0)
   1102a:	00042423          	sw	zero,8(s0)
   1102e:	c45c                	sw	a5,12(s0)
   11030:	40f2                	lw	ra,28(sp)
   11032:	4462                	lw	s0,24(sp)
   11034:	44d2                	lw	s1,20(sp)
   11036:	4942                	lw	s2,16(sp)
   11038:	49b2                	lw	s3,12(sp)
   1103a:	6105                	addi	sp,sp,32
   1103c:	8082                	ret
   1103e:	0486                	slli	s1,s1,0x1
   11040:	b7f1                	j	1100c <d_growable_string_callback_adapter+0x28>
   11042:	c008                	sw	a0,0(s0)
   11044:	c404                	sw	s1,8(s0)
   11046:	445c                	lw	a5,12(s0)
   11048:	f7e5                	bnez	a5,11030 <d_growable_string_callback_adapter+0x4c>
   1104a:	405c                	lw	a5,4(s0)
   1104c:	4008                	lw	a0,0(s0)
   1104e:	864a                	mv	a2,s2
   11050:	85ce                	mv	a1,s3
   11052:	953e                	add	a0,a0,a5
   11054:	67d060ef          	jal	ra,17ed0 <memcpy>
   11058:	401c                	lw	a5,0(s0)
   1105a:	4058                	lw	a4,4(s0)
   1105c:	97ca                	add	a5,a5,s2
   1105e:	97ba                	add	a5,a5,a4
   11060:	00078023          	sb	zero,0(a5)
   11064:	404c                	lw	a1,4(s0)
   11066:	992e                	add	s2,s2,a1
   11068:	01242223          	sw	s2,4(s0)
   1106c:	b7d1                	j	11030 <d_growable_string_callback_adapter+0x4c>

0001106e <op_is_new_cast.isra.0>:
   1106e:	411c                	lw	a5,0(a0)
   11070:	06300713          	li	a4,99
   11074:	4501                	li	a0,0
   11076:	0017c683          	lbu	a3,1(a5)
   1107a:	02e69163          	bne	a3,a4,1109c <op_is_new_cast.isra.0+0x2e>
   1107e:	0007c783          	lbu	a5,0(a5)
   11082:	4685                	li	a3,1
   11084:	4505                	li	a0,1
   11086:	f9d78713          	addi	a4,a5,-99
   1108a:	0ff77713          	zext.b	a4,a4
   1108e:	00e6f763          	bgeu	a3,a4,1109c <op_is_new_cast.isra.0+0x2e>
   11092:	f8e78793          	addi	a5,a5,-114
   11096:	0027b513          	sltiu	a0,a5,2
   1109a:	8082                	ret
   1109c:	8082                	ret

0001109e <d_print_comp>:
   1109e:	7175                	addi	sp,sp,-144
   110a0:	c522                	sw	s0,136(sp)
   110a2:	c706                	sw	ra,140(sp)
   110a4:	c326                	sw	s1,132(sp)
   110a6:	c14a                	sw	s2,128(sp)
   110a8:	dece                	sw	s3,124(sp)
   110aa:	dcd2                	sw	s4,120(sp)
   110ac:	dad6                	sw	s5,116(sp)
   110ae:	d8da                	sw	s6,112(sp)
   110b0:	d6de                	sw	s7,108(sp)
   110b2:	d4e2                	sw	s8,104(sp)
   110b4:	d2e6                	sw	s9,100(sp)
   110b6:	d0ea                	sw	s10,96(sp)
   110b8:	842a                	mv	s0,a0
   110ba:	ce01                	beqz	a2,110d2 <d_print_comp+0x34>
   110bc:	4258                	lw	a4,4(a2)
   110be:	4785                	li	a5,1
   110c0:	84b2                	mv	s1,a2
   110c2:	00e7c863          	blt	a5,a4,110d2 <d_print_comp+0x34>
   110c6:	11c52783          	lw	a5,284(a0)
   110ca:	40000693          	li	a3,1024
   110ce:	02f6d363          	bge	a3,a5,110f4 <d_print_comp+0x56>
   110d2:	4785                	li	a5,1
   110d4:	10f42c23          	sw	a5,280(s0)
   110d8:	40ba                	lw	ra,140(sp)
   110da:	442a                	lw	s0,136(sp)
   110dc:	449a                	lw	s1,132(sp)
   110de:	490a                	lw	s2,128(sp)
   110e0:	59f6                	lw	s3,124(sp)
   110e2:	5a66                	lw	s4,120(sp)
   110e4:	5ad6                	lw	s5,116(sp)
   110e6:	5b46                	lw	s6,112(sp)
   110e8:	5bb6                	lw	s7,108(sp)
   110ea:	5c26                	lw	s8,104(sp)
   110ec:	5c96                	lw	s9,100(sp)
   110ee:	5d06                	lw	s10,96(sp)
   110f0:	6149                	addi	sp,sp,144
   110f2:	8082                	ret
   110f4:	0705                	addi	a4,a4,1
   110f6:	c258                	sw	a4,4(a2)
   110f8:	00178713          	addi	a4,a5,1
   110fc:	10050793          	addi	a5,a0,256
   11100:	cfd8                	sw	a4,28(a5)
   11102:	57d8                	lw	a4,44(a5)
   11104:	0187a903          	lw	s2,24(a5)
   11108:	080c                	addi	a1,sp,16
   1110a:	c832                	sw	a2,16(sp)
   1110c:	ca3a                	sw	a4,20(sp)
   1110e:	d7cc                	sw	a1,44(a5)
   11110:	560911e3          	bnez	s2,11e72 <d_print_comp+0xdd4>
   11114:	421c                	lw	a5,0(a2)
   11116:	05000713          	li	a4,80
   1111a:	0af76363          	bltu	a4,a5,111c0 <d_print_comp+0x122>
   1111e:	000246b7          	lui	a3,0x24
   11122:	00279713          	slli	a4,a5,0x2
   11126:	f5868693          	addi	a3,a3,-168 # 23f58 <_ZTVN10__cxxabiv117__class_type_infoE+0x2d0>
   1112a:	9736                	add	a4,a4,a3
   1112c:	4318                	lw	a4,0(a4)
   1112e:	8702                	jr	a4
   11130:	4650                	lw	a2,12(a2)
   11132:	45c5                	li	a1,17
   11134:	37ad                	jal	1109e <d_print_comp>
   11136:	000255b7          	lui	a1,0x25
   1113a:	bfc58593          	addi	a1,a1,-1028 # 24bfc <cplus_demangle_operators+0x488>
   1113e:	8522                	mv	a0,s0
   11140:	3931                	jal	10d5c <d_append_string>
   11142:	4890                	lw	a2,16(s1)
   11144:	45c5                	li	a1,17
   11146:	8522                	mv	a0,s0
   11148:	3f99                	jal	1109e <d_print_comp>
   1114a:	3230006f          	j	11c6c <d_print_comp+0xbce>
   1114e:	4650                	lw	a2,12(a2)
   11150:	45c5                	li	a1,17
   11152:	37b1                	jal	1109e <d_print_comp>
   11154:	000255b7          	lui	a1,0x25
   11158:	c0458593          	addi	a1,a1,-1020 # 24c04 <cplus_demangle_operators+0x490>
   1115c:	8522                	mv	a0,s0
   1115e:	3efd                	jal	10d5c <d_append_string>
   11160:	0104a903          	lw	s2,16(s1)
   11164:	04700793          	li	a5,71
   11168:	00092703          	lw	a4,0(s2) # 6718000 <__BSS_END__+0x66eeacc>
   1116c:	02f71563          	bne	a4,a5,11196 <d_print_comp+0xf8>
   11170:	000255b7          	lui	a1,0x25
   11174:	c0858593          	addi	a1,a1,-1016 # 24c08 <cplus_demangle_operators+0x494>
   11178:	8522                	mv	a0,s0
   1117a:	36cd                	jal	10d5c <d_append_string>
   1117c:	01092583          	lw	a1,16(s2)
   11180:	8522                	mv	a0,s0
   11182:	0585                	addi	a1,a1,1
   11184:	31fd                	jal	10e72 <d_append_num>
   11186:	000255b7          	lui	a1,0x25
   1118a:	c1858593          	addi	a1,a1,-1000 # 24c18 <cplus_demangle_operators+0x4a4>
   1118e:	8522                	mv	a0,s0
   11190:	36f1                	jal	10d5c <d_append_string>
   11192:	00c92903          	lw	s2,12(s2)
   11196:	864a                	mv	a2,s2
   11198:	45c5                	li	a1,17
   1119a:	8522                	mv	a0,s0
   1119c:	3709                	jal	1109e <d_print_comp>
   1119e:	4d50006f          	j	11e72 <d_print_comp+0xdd4>
   111a2:	00c62903          	lw	s2,12(a2)
   111a6:	02010a93          	addi	s5,sp,32
   111aa:	11452b83          	lw	s7,276(a0)
   111ae:	8a56                	mv	s4,s5
   111b0:	10052a23          	sw	zero,276(a0)
   111b4:	4981                	li	s3,0
   111b6:	4c91                	li	s9,4
   111b8:	00090463          	beqz	s2,111c0 <d_print_comp+0x122>
   111bc:	01999763          	bne	s3,s9,111ca <d_print_comp+0x12c>
   111c0:	4785                	li	a5,1
   111c2:	10f42c23          	sw	a5,280(s0)
   111c6:	4ad0006f          	j	11e72 <d_print_comp+0xdd4>
   111ca:	000a2423          	sw	zero,8(s4)
   111ce:	11442783          	lw	a5,276(s0)
   111d2:	11042c03          	lw	s8,272(s0)
   111d6:	00092b03          	lw	s6,0(s2)
   111da:	00fa2023          	sw	a5,0(s4)
   111de:	11442a23          	sw	s4,276(s0)
   111e2:	012a2223          	sw	s2,4(s4)
   111e6:	018a2623          	sw	s8,12(s4)
   111ea:	855a                	mv	a0,s6
   111ec:	f64ff0ef          	jal	ra,10950 <is_fnqual_component_type>
   111f0:	0985                	addi	s3,s3,1
   111f2:	0a41                	addi	s4,s4,16
   111f4:	400509e3          	beqz	a0,11e06 <d_print_comp+0xd68>
   111f8:	00c92903          	lw	s2,12(s2)
   111fc:	bf75                	j	111b8 <d_print_comp+0x11a>
   111fe:	fd9981e3          	beq	s3,s9,111c0 <d_print_comp+0x122>
   11202:	ff0a0b13          	addi	s6,s4,-16
   11206:	8552                	mv	a0,s4
   11208:	4641                	li	a2,16
   1120a:	85da                	mv	a1,s6
   1120c:	4c5060ef          	jal	ra,17ed0 <memcpy>
   11210:	ff2a2a23          	sw	s2,-12(s4)
   11214:	fe0a2c23          	sw	zero,-8(s4)
   11218:	016a2023          	sw	s6,0(s4)
   1121c:	11442a23          	sw	s4,276(s0)
   11220:	ff8a2e23          	sw	s8,-4(s4)
   11224:	00c92903          	lw	s2,12(s2)
   11228:	0985                	addi	s3,s3,1
   1122a:	0a41                	addi	s4,s4,16
   1122c:	3fd0006f          	j	11e28 <d_print_comp+0xd8a>
   11230:	ff89a783          	lw	a5,-8(s3) # 107ff8 <__BSS_END__+0xdeac4>
   11234:	eb99                	bnez	a5,1124a <d_print_comp+0x1ac>
   11236:	02000593          	li	a1,32
   1123a:	8522                	mv	a0,s0
   1123c:	3c71                	jal	10cd8 <d_append_char>
   1123e:	ff49a603          	lw	a2,-12(s3)
   11242:	45c5                	li	a1,17
   11244:	8522                	mv	a0,s0
   11246:	447000ef          	jal	ra,11e8c <d_print_mod>
   1124a:	19c1                	addi	s3,s3,-16
   1124c:	41f0006f          	j	11e6a <d_print_comp+0xdcc>
   11250:	14852903          	lw	s2,328(a0)
   11254:	14c42423          	sw	a2,328(s0)
   11258:	4650                	lw	a2,12(a2)
   1125a:	11452983          	lw	s3,276(a0)
   1125e:	45c5                	li	a1,17
   11260:	10052a23          	sw	zero,276(a0)
   11264:	3d2d                	jal	1109e <d_print_comp>
   11266:	10444703          	lbu	a4,260(s0)
   1126a:	03c00793          	li	a5,60
   1126e:	00f71663          	bne	a4,a5,1127a <d_print_comp+0x1dc>
   11272:	02000593          	li	a1,32
   11276:	8522                	mv	a0,s0
   11278:	3485                	jal	10cd8 <d_append_char>
   1127a:	03c00593          	li	a1,60
   1127e:	8522                	mv	a0,s0
   11280:	3ca1                	jal	10cd8 <d_append_char>
   11282:	4890                	lw	a2,16(s1)
   11284:	45c5                	li	a1,17
   11286:	8522                	mv	a0,s0
   11288:	3d19                	jal	1109e <d_print_comp>
   1128a:	10444703          	lbu	a4,260(s0)
   1128e:	03e00793          	li	a5,62
   11292:	00f71663          	bne	a4,a5,1129e <d_print_comp+0x200>
   11296:	02000593          	li	a1,32
   1129a:	8522                	mv	a0,s0
   1129c:	3c35                	jal	10cd8 <d_append_char>
   1129e:	03e00593          	li	a1,62
   112a2:	8522                	mv	a0,s0
   112a4:	3c15                	jal	10cd8 <d_append_char>
   112a6:	11342a23          	sw	s3,276(s0)
   112aa:	15242423          	sw	s2,328(s0)
   112ae:	3c50006f          	j	11e72 <d_print_comp+0xdd4>
   112b2:	12052783          	lw	a5,288(a0)
   112b6:	cf89                	beqz	a5,112d0 <d_print_comp+0x232>
   112b8:	000255b7          	lui	a1,0x25
   112bc:	c1c58593          	addi	a1,a1,-996 # 24c1c <cplus_demangle_operators+0x4a8>
   112c0:	4615                	li	a2,5
   112c2:	3c81                	jal	10d12 <d_append_buffer>
   112c4:	44cc                	lw	a1,12(s1)
   112c6:	0585                	addi	a1,a1,1
   112c8:	8522                	mv	a0,s0
   112ca:	3665                	jal	10e72 <d_append_num>
   112cc:	3a70006f          	j	11e72 <d_print_comp+0xdd4>
   112d0:	85b2                	mv	a1,a2
   112d2:	3981                	jal	10f22 <d_lookup_template_argument>
   112d4:	862a                	mv	a2,a0
   112d6:	ee0505e3          	beqz	a0,111c0 <d_print_comp+0x122>
   112da:	4118                	lw	a4,0(a0)
   112dc:	02f00793          	li	a5,47
   112e0:	00f71863          	bne	a4,a5,112f0 <d_print_comp+0x252>
   112e4:	12442583          	lw	a1,292(s0)
   112e8:	3921                	jal	10f00 <d_index_template_argument>
   112ea:	862a                	mv	a2,a0
   112ec:	ec050ae3          	beqz	a0,111c0 <d_print_comp+0x122>
   112f0:	11042903          	lw	s2,272(s0)
   112f4:	45c5                	li	a1,17
   112f6:	8522                	mv	a0,s0
   112f8:	00092783          	lw	a5,0(s2)
   112fc:	10f42823          	sw	a5,272(s0)
   11300:	3b79                	jal	1109e <d_print_comp>
   11302:	11242823          	sw	s2,272(s0)
   11306:	36d0006f          	j	11e72 <d_print_comp+0xdd4>
   1130a:	000255b7          	lui	a1,0x25
   1130e:	c2458593          	addi	a1,a1,-988 # 24c24 <cplus_demangle_operators+0x4b0>
   11312:	8522                	mv	a0,s0
   11314:	34a1                	jal	10d5c <d_append_string>
   11316:	aa81                	j	11466 <d_print_comp+0x3c8>
   11318:	07e00593          	li	a1,126
   1131c:	3a75                	jal	10cd8 <d_append_char>
   1131e:	4890                	lw	a2,16(s1)
   11320:	bda5                	j	11198 <d_print_comp+0xfa>
   11322:	000255b7          	lui	a1,0x25
   11326:	c4458593          	addi	a1,a1,-956 # 24c44 <cplus_demangle_operators+0x4d0>
   1132a:	b7e5                	j	11312 <d_print_comp+0x274>
   1132c:	000255b7          	lui	a1,0x25
   11330:	c5058593          	addi	a1,a1,-944 # 24c50 <cplus_demangle_operators+0x4dc>
   11334:	bff9                	j	11312 <d_print_comp+0x274>
   11336:	000255b7          	lui	a1,0x25
   1133a:	c5c58593          	addi	a1,a1,-932 # 24c5c <cplus_demangle_operators+0x4e8>
   1133e:	3c39                	jal	10d5c <d_append_string>
   11340:	44d0                	lw	a2,12(s1)
   11342:	45c5                	li	a1,17
   11344:	8522                	mv	a0,s0
   11346:	3ba1                	jal	1109e <d_print_comp>
   11348:	000255b7          	lui	a1,0x25
   1134c:	c7858593          	addi	a1,a1,-904 # 24c78 <cplus_demangle_operators+0x504>
   11350:	8522                	mv	a0,s0
   11352:	3429                	jal	10d5c <d_append_string>
   11354:	b7e9                	j	1131e <d_print_comp+0x280>
   11356:	000255b7          	lui	a1,0x25
   1135a:	c8058593          	addi	a1,a1,-896 # 24c80 <cplus_demangle_operators+0x50c>
   1135e:	bf55                	j	11312 <d_print_comp+0x274>
   11360:	000255b7          	lui	a1,0x25
   11364:	c9058593          	addi	a1,a1,-880 # 24c90 <cplus_demangle_operators+0x51c>
   11368:	b76d                	j	11312 <d_print_comp+0x274>
   1136a:	000255b7          	lui	a1,0x25
   1136e:	ca458593          	addi	a1,a1,-860 # 24ca4 <cplus_demangle_operators+0x530>
   11372:	b745                	j	11312 <d_print_comp+0x274>
   11374:	000255b7          	lui	a1,0x25
   11378:	cb858593          	addi	a1,a1,-840 # 24cb8 <cplus_demangle_operators+0x544>
   1137c:	bf59                	j	11312 <d_print_comp+0x274>
   1137e:	000255b7          	lui	a1,0x25
   11382:	cbc58593          	addi	a1,a1,-836 # 24cbc <cplus_demangle_operators+0x548>
   11386:	b771                	j	11312 <d_print_comp+0x274>
   11388:	000255b7          	lui	a1,0x25
   1138c:	cd058593          	addi	a1,a1,-816 # 24cd0 <cplus_demangle_operators+0x55c>
   11390:	b749                	j	11312 <d_print_comp+0x274>
   11392:	000255b7          	lui	a1,0x25
   11396:	cec58593          	addi	a1,a1,-788 # 24cec <cplus_demangle_operators+0x578>
   1139a:	bfa5                	j	11312 <d_print_comp+0x274>
   1139c:	000255b7          	lui	a1,0x25
   113a0:	cfc58593          	addi	a1,a1,-772 # 24cfc <cplus_demangle_operators+0x588>
   113a4:	b7bd                	j	11312 <d_print_comp+0x274>
   113a6:	000255b7          	lui	a1,0x25
   113aa:	d1058593          	addi	a1,a1,-752 # 24d10 <cplus_demangle_operators+0x59c>
   113ae:	b795                	j	11312 <d_print_comp+0x274>
   113b0:	000255b7          	lui	a1,0x25
   113b4:	d2858593          	addi	a1,a1,-728 # 24d28 <cplus_demangle_operators+0x5b4>
   113b8:	bfa9                	j	11312 <d_print_comp+0x274>
   113ba:	000255b7          	lui	a1,0x25
   113be:	d4458593          	addi	a1,a1,-700 # 24d44 <cplus_demangle_operators+0x5d0>
   113c2:	3a69                	jal	10d5c <d_append_string>
   113c4:	4890                	lw	a2,16(s1)
   113c6:	45c5                	li	a1,17
   113c8:	8522                	mv	a0,s0
   113ca:	39d1                	jal	1109e <d_print_comp>
   113cc:	000255b7          	lui	a1,0x25
   113d0:	d3c58593          	addi	a1,a1,-708 # 24d3c <cplus_demangle_operators+0x5c8>
   113d4:	bf3d                	j	11312 <d_print_comp+0x274>
   113d6:	000255b7          	lui	a1,0x25
   113da:	d5c58593          	addi	a1,a1,-676 # 24d5c <cplus_demangle_operators+0x5e8>
   113de:	bf15                	j	11312 <d_print_comp+0x274>
   113e0:	000255b7          	lui	a1,0x25
   113e4:	d7458593          	addi	a1,a1,-652 # 24d74 <cplus_demangle_operators+0x600>
   113e8:	b72d                	j	11312 <d_print_comp+0x274>
   113ea:	000255b7          	lui	a1,0x25
   113ee:	d7058593          	addi	a1,a1,-656 # 24d70 <cplus_demangle_operators+0x5fc>
   113f2:	b705                	j	11312 <d_print_comp+0x274>
   113f4:	4a10                	lw	a2,16(a2)
   113f6:	44cc                	lw	a1,12(s1)
   113f8:	8522                	mv	a0,s0
   113fa:	3a21                	jal	10d12 <d_append_buffer>
   113fc:	2770006f          	j	11e72 <d_print_comp+0xdd4>
   11400:	11452603          	lw	a2,276(a0)
   11404:	4689                	li	a3,2
   11406:	e621                	bnez	a2,1144e <d_print_comp+0x3b0>
   11408:	4981                	li	s3,0
   1140a:	8926                	mv	s2,s1
   1140c:	11442783          	lw	a5,276(s0)
   11410:	d24a                	sw	s2,36(sp)
   11412:	d402                	sw	zero,40(sp)
   11414:	d03e                	sw	a5,32(sp)
   11416:	101c                	addi	a5,sp,32
   11418:	10f42a23          	sw	a5,276(s0)
   1141c:	11042783          	lw	a5,272(s0)
   11420:	d63e                	sw	a5,44(sp)
   11422:	e219                	bnez	a2,11428 <d_print_comp+0x38a>
   11424:	00c92603          	lw	a2,12(s2)
   11428:	45c5                	li	a1,17
   1142a:	8522                	mv	a0,s0
   1142c:	398d                	jal	1109e <d_print_comp>
   1142e:	57a2                	lw	a5,40(sp)
   11430:	e791                	bnez	a5,1143c <d_print_comp+0x39e>
   11432:	864a                	mv	a2,s2
   11434:	45c5                	li	a1,17
   11436:	8522                	mv	a0,s0
   11438:	255000ef          	jal	ra,11e8c <d_print_mod>
   1143c:	5782                	lw	a5,32(sp)
   1143e:	10f42a23          	sw	a5,276(s0)
   11442:	220988e3          	beqz	s3,11e72 <d_print_comp+0xdd4>
   11446:	11442823          	sw	s4,272(s0)
   1144a:	2290006f          	j	11e72 <d_print_comp+0xdd4>
   1144e:	00862983          	lw	s3,8(a2)
   11452:	00099c63          	bnez	s3,1146a <d_print_comp+0x3cc>
   11456:	4258                	lw	a4,4(a2)
   11458:	4318                	lw	a4,0(a4)
   1145a:	fe770593          	addi	a1,a4,-25
   1145e:	10b6e263          	bltu	a3,a1,11562 <d_print_comp+0x4c4>
   11462:	00e79463          	bne	a5,a4,1146a <d_print_comp+0x3cc>
   11466:	44d0                	lw	a2,12(s1)
   11468:	bb05                	j	11198 <d_print_comp+0xfa>
   1146a:	4210                	lw	a2,0(a2)
   1146c:	bf69                	j	11406 <d_print_comp+0x368>
   1146e:	12052983          	lw	s3,288(a0)
   11472:	00c62903          	lw	s2,12(a2)
   11476:	0c099363          	bnez	s3,1153c <d_print_comp+0x49e>
   1147a:	00092703          	lw	a4,0(s2)
   1147e:	4795                	li	a5,5
   11480:	0af71f63          	bne	a4,a5,1153e <d_print_comp+0x4a0>
   11484:	13452703          	lw	a4,308(a0)
   11488:	4601                	li	a2,0
   1148a:	04e64a63          	blt	a2,a4,114de <d_print_comp+0x440>
   1148e:	13842783          	lw	a5,312(s0)
   11492:	d2f757e3          	bge	a4,a5,111c0 <d_print_comp+0x122>
   11496:	13042783          	lw	a5,304(s0)
   1149a:	00371693          	slli	a3,a4,0x3
   1149e:	11042603          	lw	a2,272(s0)
   114a2:	0705                	addi	a4,a4,1
   114a4:	97b6                	add	a5,a5,a3
   114a6:	12e42a23          	sw	a4,308(s0)
   114aa:	0127a023          	sw	s2,0(a5)
   114ae:	0791                	addi	a5,a5,4
   114b0:	e229                	bnez	a2,114f2 <d_print_comp+0x454>
   114b2:	0007a023          	sw	zero,0(a5)
   114b6:	85ca                	mv	a1,s2
   114b8:	8522                	mv	a0,s0
   114ba:	34a5                	jal	10f22 <d_lookup_template_argument>
   114bc:	892a                	mv	s2,a0
   114be:	c919                	beqz	a0,114d4 <d_print_comp+0x436>
   114c0:	4118                	lw	a4,0(a0)
   114c2:	02f00793          	li	a5,47
   114c6:	06f71c63          	bne	a4,a5,1153e <d_print_comp+0x4a0>
   114ca:	12442583          	lw	a1,292(s0)
   114ce:	3c0d                	jal	10f00 <d_index_template_argument>
   114d0:	892a                	mv	s2,a0
   114d2:	e535                	bnez	a0,1153e <d_print_comp+0x4a0>
   114d4:	ce0986e3          	beqz	s3,111c0 <d_print_comp+0x122>
   114d8:	11442823          	sw	s4,272(s0)
   114dc:	b1d5                	j	111c0 <d_print_comp+0x122>
   114de:	13042783          	lw	a5,304(s0)
   114e2:	00361693          	slli	a3,a2,0x3
   114e6:	96be                	add	a3,a3,a5
   114e8:	429c                	lw	a5,0(a3)
   114ea:	02f90863          	beq	s2,a5,1151a <d_print_comp+0x47c>
   114ee:	0605                	addi	a2,a2,1
   114f0:	bf69                	j	1148a <d_print_comp+0x3ec>
   114f2:	14042683          	lw	a3,320(s0)
   114f6:	14442703          	lw	a4,324(s0)
   114fa:	cce6d3e3          	bge	a3,a4,111c0 <d_print_comp+0x122>
   114fe:	13c42703          	lw	a4,316(s0)
   11502:	00369593          	slli	a1,a3,0x3
   11506:	0685                	addi	a3,a3,1
   11508:	14d42023          	sw	a3,320(s0)
   1150c:	4254                	lw	a3,4(a2)
   1150e:	972e                	add	a4,a4,a1
   11510:	c354                	sw	a3,4(a4)
   11512:	c398                	sw	a4,0(a5)
   11514:	4210                	lw	a2,0(a2)
   11516:	87ba                	mv	a5,a4
   11518:	bf61                	j	114b0 <d_print_comp+0x412>
   1151a:	87ae                	mv	a5,a1
   1151c:	4398                	lw	a4,0(a5)
   1151e:	f8e90ce3          	beq	s2,a4,114b6 <d_print_comp+0x418>
   11522:	00e49463          	bne	s1,a4,1152a <d_print_comp+0x48c>
   11526:	f8b798e3          	bne	a5,a1,114b6 <d_print_comp+0x418>
   1152a:	43dc                	lw	a5,4(a5)
   1152c:	fbe5                	bnez	a5,1151c <d_print_comp+0x47e>
   1152e:	42dc                	lw	a5,4(a3)
   11530:	11042a03          	lw	s4,272(s0)
   11534:	4985                	li	s3,1
   11536:	10f42823          	sw	a5,272(s0)
   1153a:	bfb5                	j	114b6 <d_print_comp+0x418>
   1153c:	4981                	li	s3,0
   1153e:	00092783          	lw	a5,0(s2)
   11542:	02300713          	li	a4,35
   11546:	4601                	li	a2,0
   11548:	ece782e3          	beq	a5,a4,1140c <d_print_comp+0x36e>
   1154c:	4098                	lw	a4,0(s1)
   1154e:	eae78fe3          	beq	a5,a4,1140c <d_print_comp+0x36e>
   11552:	02400713          	li	a4,36
   11556:	00e79663          	bne	a5,a4,11562 <d_print_comp+0x4c4>
   1155a:	00c92603          	lw	a2,12(s2)
   1155e:	b575                	j	1140a <d_print_comp+0x36c>
   11560:	4981                	li	s3,0
   11562:	8926                	mv	s2,s1
   11564:	4601                	li	a2,0
   11566:	b55d                	j	1140c <d_print_comp+0x36e>
   11568:	465c                	lw	a5,12(a2)
   1156a:	43d0                	lw	a2,4(a5)
   1156c:	438c                	lw	a1,0(a5)
   1156e:	b569                	j	113f8 <d_print_comp+0x35a>
   11570:	4650                	lw	a2,12(a2)
   11572:	ca0d                	beqz	a2,115a4 <d_print_comp+0x506>
   11574:	11452783          	lw	a5,276(a0)
   11578:	45c5                	li	a1,17
   1157a:	d226                	sw	s1,36(sp)
   1157c:	d03e                	sw	a5,32(sp)
   1157e:	101c                	addi	a5,sp,32
   11580:	10f52a23          	sw	a5,276(a0)
   11584:	11052783          	lw	a5,272(a0)
   11588:	d402                	sw	zero,40(sp)
   1158a:	d63e                	sw	a5,44(sp)
   1158c:	3e09                	jal	1109e <d_print_comp>
   1158e:	5782                	lw	a5,32(sp)
   11590:	10f42a23          	sw	a5,276(s0)
   11594:	57a2                	lw	a5,40(sp)
   11596:	0c079ee3          	bnez	a5,11e72 <d_print_comp+0xdd4>
   1159a:	02000593          	li	a1,32
   1159e:	8522                	mv	a0,s0
   115a0:	f38ff0ef          	jal	ra,10cd8 <d_append_char>
   115a4:	11442683          	lw	a3,276(s0)
   115a8:	8626                	mv	a2,s1
   115aa:	45c5                	li	a1,17
   115ac:	8522                	mv	a0,s0
   115ae:	223000ef          	jal	ra,11fd0 <d_print_function_type>
   115b2:	0c10006f          	j	11e72 <d_print_comp+0xdd4>
   115b6:	11452a83          	lw	s5,276(a0)
   115ba:	11052783          	lw	a5,272(a0)
   115be:	02010b13          	addi	s6,sp,32
   115c2:	d056                	sw	s5,32(sp)
   115c4:	11652a23          	sw	s6,276(a0)
   115c8:	d232                	sw	a2,36(sp)
   115ca:	d402                	sw	zero,40(sp)
   115cc:	d63e                	sw	a5,44(sp)
   115ce:	89d6                	mv	s3,s5
   115d0:	4905                	li	s2,1
   115d2:	4c09                	li	s8,2
   115d4:	4c8d                	li	s9,3
   115d6:	4d05                	li	s10,1
   115d8:	00098863          	beqz	s3,115e8 <d_print_comp+0x54a>
   115dc:	0049a783          	lw	a5,4(s3)
   115e0:	439c                	lw	a5,0(a5)
   115e2:	179d                	addi	a5,a5,-25
   115e4:	02fc7763          	bgeu	s8,a5,11612 <d_print_comp+0x574>
   115e8:	4890                	lw	a2,16(s1)
   115ea:	45c5                	li	a1,17
   115ec:	8522                	mv	a0,s0
   115ee:	3c45                	jal	1109e <d_print_comp>
   115f0:	57a2                	lw	a5,40(sp)
   115f2:	11542a23          	sw	s5,276(s0)
   115f6:	4985                	li	s3,1
   115f8:	06079de3          	bnez	a5,11e72 <d_print_comp+0xdd4>
   115fc:	05391863          	bne	s2,s3,1164c <d_print_comp+0x5ae>
   11600:	11442683          	lw	a3,276(s0)
   11604:	8626                	mv	a2,s1
   11606:	45c5                	li	a1,17
   11608:	8522                	mv	a0,s0
   1160a:	3a9000ef          	jal	ra,121b2 <d_print_array_type>
   1160e:	0650006f          	j	11e72 <d_print_comp+0xdd4>
   11612:	0089a783          	lw	a5,8(s3)
   11616:	eb85                	bnez	a5,11646 <d_print_comp+0x5a8>
   11618:	bb2ce4e3          	bltu	s9,s2,111c0 <d_print_comp+0x122>
   1161c:	00491a13          	slli	s4,s2,0x4
   11620:	109c                	addi	a5,sp,96
   11622:	01478bb3          	add	s7,a5,s4
   11626:	4641                	li	a2,16
   11628:	85ce                	mv	a1,s3
   1162a:	fc0b8513          	addi	a0,s7,-64
   1162e:	0a3060ef          	jal	ra,17ed0 <memcpy>
   11632:	11442783          	lw	a5,276(s0)
   11636:	9a5a                	add	s4,s4,s6
   11638:	11442a23          	sw	s4,276(s0)
   1163c:	fcfba023          	sw	a5,-64(s7)
   11640:	01a9a423          	sw	s10,8(s3)
   11644:	0905                	addi	s2,s2,1
   11646:	0009a983          	lw	s3,0(s3)
   1164a:	b779                	j	115d8 <d_print_comp+0x53a>
   1164c:	197d                	addi	s2,s2,-1
   1164e:	00491793          	slli	a5,s2,0x4
   11652:	97da                	add	a5,a5,s6
   11654:	43d0                	lw	a2,4(a5)
   11656:	45c5                	li	a1,17
   11658:	8522                	mv	a0,s0
   1165a:	033000ef          	jal	ra,11e8c <d_print_mod>
   1165e:	bf79                	j	115fc <d_print_comp+0x55e>
   11660:	11452783          	lw	a5,276(a0)
   11664:	d232                	sw	a2,36(sp)
   11666:	4a10                	lw	a2,16(a2)
   11668:	d03e                	sw	a5,32(sp)
   1166a:	101c                	addi	a5,sp,32
   1166c:	10f52a23          	sw	a5,276(a0)
   11670:	11052783          	lw	a5,272(a0)
   11674:	45c5                	li	a1,17
   11676:	d402                	sw	zero,40(sp)
   11678:	d63e                	sw	a5,44(sp)
   1167a:	3415                	jal	1109e <d_print_comp>
   1167c:	57a2                	lw	a5,40(sp)
   1167e:	e791                	bnez	a5,1168a <d_print_comp+0x5ec>
   11680:	8626                	mv	a2,s1
   11682:	45c5                	li	a1,17
   11684:	8522                	mv	a0,s0
   11686:	007000ef          	jal	ra,11e8c <d_print_mod>
   1168a:	5782                	lw	a5,32(sp)
   1168c:	10f42a23          	sw	a5,276(s0)
   11690:	7e20006f          	j	11e72 <d_print_comp+0xdd4>
   11694:	01261783          	lh	a5,18(a2)
   11698:	c799                	beqz	a5,116a6 <d_print_comp+0x608>
   1169a:	000255b7          	lui	a1,0x25
   1169e:	d8c58593          	addi	a1,a1,-628 # 24d8c <cplus_demangle_operators+0x618>
   116a2:	ebaff0ef          	jal	ra,10d5c <d_append_string>
   116a6:	44d0                	lw	a2,12(s1)
   116a8:	000247b7          	lui	a5,0x24
   116ac:	4a878793          	addi	a5,a5,1192 # 244a8 <cplus_demangle_builtin_types+0xa0>
   116b0:	4658                	lw	a4,12(a2)
   116b2:	00f70a63          	beq	a4,a5,116c6 <d_print_comp+0x628>
   116b6:	45c5                	li	a1,17
   116b8:	8522                	mv	a0,s0
   116ba:	32d5                	jal	1109e <d_print_comp>
   116bc:	02000593          	li	a1,32
   116c0:	8522                	mv	a0,s0
   116c2:	e16ff0ef          	jal	ra,10cd8 <d_append_char>
   116c6:	01049783          	lh	a5,16(s1)
   116ca:	cb91                	beqz	a5,116de <d_print_comp+0x640>
   116cc:	000255b7          	lui	a1,0x25
   116d0:	d9458593          	addi	a1,a1,-620 # 24d94 <cplus_demangle_operators+0x620>
   116d4:	8522                	mv	a0,s0
   116d6:	e86ff0ef          	jal	ra,10d5c <d_append_string>
   116da:	7980006f          	j	11e72 <d_print_comp+0xdd4>
   116de:	000255b7          	lui	a1,0x25
   116e2:	d9c58593          	addi	a1,a1,-612 # 24d9c <cplus_demangle_operators+0x628>
   116e6:	b7fd                	j	116d4 <d_print_comp+0x636>
   116e8:	4650                	lw	a2,12(a2)
   116ea:	c219                	beqz	a2,116f0 <d_print_comp+0x652>
   116ec:	45c5                	li	a1,17
   116ee:	3a45                	jal	1109e <d_print_comp>
   116f0:	489c                	lw	a5,16(s1)
   116f2:	78078063          	beqz	a5,11e72 <d_print_comp+0xdd4>
   116f6:	10042703          	lw	a4,256(s0)
   116fa:	0fd00793          	li	a5,253
   116fe:	00e7f563          	bgeu	a5,a4,11708 <d_print_comp+0x66a>
   11702:	8522                	mv	a0,s0
   11704:	da2ff0ef          	jal	ra,10ca6 <d_print_flush>
   11708:	000255b7          	lui	a1,0x25
   1170c:	da458593          	addi	a1,a1,-604 # 24da4 <cplus_demangle_operators+0x630>
   11710:	8522                	mv	a0,s0
   11712:	e4aff0ef          	jal	ra,10d5c <d_append_string>
   11716:	4890                	lw	a2,16(s1)
   11718:	45c5                	li	a1,17
   1171a:	8522                	mv	a0,s0
   1171c:	10042903          	lw	s2,256(s0)
   11720:	12842983          	lw	s3,296(s0)
   11724:	3aad                	jal	1109e <d_print_comp>
   11726:	12842783          	lw	a5,296(s0)
   1172a:	74f99463          	bne	s3,a5,11e72 <d_print_comp+0xdd4>
   1172e:	10042783          	lw	a5,256(s0)
   11732:	74f91063          	bne	s2,a5,11e72 <d_print_comp+0xdd4>
   11736:	1979                	addi	s2,s2,-2
   11738:	11242023          	sw	s2,256(s0)
   1173c:	7360006f          	j	11e72 <d_print_comp+0xdd4>
   11740:	4650                	lw	a2,12(a2)
   11742:	0104a903          	lw	s2,16(s1)
   11746:	c219                	beqz	a2,1174c <d_print_comp+0x6ae>
   11748:	45c5                	li	a1,17
   1174a:	3a91                	jal	1109e <d_print_comp>
   1174c:	07b00593          	li	a1,123
   11750:	8522                	mv	a0,s0
   11752:	d86ff0ef          	jal	ra,10cd8 <d_append_char>
   11756:	864a                	mv	a2,s2
   11758:	45c5                	li	a1,17
   1175a:	8522                	mv	a0,s0
   1175c:	3289                	jal	1109e <d_print_comp>
   1175e:	07d00593          	li	a1,125
   11762:	a8cd                	j	11854 <d_print_comp+0x7b6>
   11764:	00c62983          	lw	s3,12(a2)
   11768:	000255b7          	lui	a1,0x25
   1176c:	da858593          	addi	a1,a1,-600 # 24da8 <cplus_demangle_operators+0x634>
   11770:	0089a903          	lw	s2,8(s3)
   11774:	de8ff0ef          	jal	ra,10d5c <d_append_string>
   11778:	0049a783          	lw	a5,4(s3)
   1177c:	4765                	li	a4,25
   1177e:	0007c783          	lbu	a5,0(a5)
   11782:	f9f78793          	addi	a5,a5,-97
   11786:	0ff7f793          	zext.b	a5,a5
   1178a:	00f76763          	bltu	a4,a5,11798 <d_print_comp+0x6fa>
   1178e:	02000593          	li	a1,32
   11792:	8522                	mv	a0,s0
   11794:	d44ff0ef          	jal	ra,10cd8 <d_append_char>
   11798:	0049a583          	lw	a1,4(s3)
   1179c:	012587b3          	add	a5,a1,s2
   117a0:	fff7c703          	lbu	a4,-1(a5)
   117a4:	02000793          	li	a5,32
   117a8:	00f71363          	bne	a4,a5,117ae <d_print_comp+0x710>
   117ac:	197d                	addi	s2,s2,-1
   117ae:	864a                	mv	a2,s2
   117b0:	b1a1                	j	113f8 <d_print_comp+0x35a>
   117b2:	000255b7          	lui	a1,0x25
   117b6:	db458593          	addi	a1,a1,-588 # 24db4 <cplus_demangle_operators+0x640>
   117ba:	be59                	j	11350 <d_print_comp+0x2b2>
   117bc:	000255b7          	lui	a1,0x25
   117c0:	db458593          	addi	a1,a1,-588 # 24db4 <cplus_demangle_operators+0x640>
   117c4:	d98ff0ef          	jal	ra,10d5c <d_append_string>
   117c8:	14842783          	lw	a5,328(s0)
   117cc:	cb81                	beqz	a5,117dc <d_print_comp+0x73e>
   117ce:	11042703          	lw	a4,272(s0)
   117d2:	d23e                	sw	a5,36(sp)
   117d4:	d03a                	sw	a4,32(sp)
   117d6:	1018                	addi	a4,sp,32
   117d8:	10e42823          	sw	a4,272(s0)
   117dc:	44d0                	lw	a2,12(s1)
   117de:	4791                	li	a5,4
   117e0:	4218                	lw	a4,0(a2)
   117e2:	00f70d63          	beq	a4,a5,117fc <d_print_comp+0x75e>
   117e6:	45c5                	li	a1,17
   117e8:	8522                	mv	a0,s0
   117ea:	3855                	jal	1109e <d_print_comp>
   117ec:	14842783          	lw	a5,328(s0)
   117f0:	68078163          	beqz	a5,11e72 <d_print_comp+0xdd4>
   117f4:	5782                	lw	a5,32(sp)
   117f6:	10f42823          	sw	a5,272(s0)
   117fa:	ada5                	j	11e72 <d_print_comp+0xdd4>
   117fc:	4650                	lw	a2,12(a2)
   117fe:	45c5                	li	a1,17
   11800:	8522                	mv	a0,s0
   11802:	3871                	jal	1109e <d_print_comp>
   11804:	14842783          	lw	a5,328(s0)
   11808:	c781                	beqz	a5,11810 <d_print_comp+0x772>
   1180a:	5782                	lw	a5,32(sp)
   1180c:	10f42823          	sw	a5,272(s0)
   11810:	10444703          	lbu	a4,260(s0)
   11814:	03c00793          	li	a5,60
   11818:	00f71763          	bne	a4,a5,11826 <d_print_comp+0x788>
   1181c:	02000593          	li	a1,32
   11820:	8522                	mv	a0,s0
   11822:	cb6ff0ef          	jal	ra,10cd8 <d_append_char>
   11826:	03c00593          	li	a1,60
   1182a:	8522                	mv	a0,s0
   1182c:	cacff0ef          	jal	ra,10cd8 <d_append_char>
   11830:	44dc                	lw	a5,12(s1)
   11832:	45c5                	li	a1,17
   11834:	8522                	mv	a0,s0
   11836:	4b90                	lw	a2,16(a5)
   11838:	309d                	jal	1109e <d_print_comp>
   1183a:	10444703          	lbu	a4,260(s0)
   1183e:	03e00793          	li	a5,62
   11842:	00f71763          	bne	a4,a5,11850 <d_print_comp+0x7b2>
   11846:	02000593          	li	a1,32
   1184a:	8522                	mv	a0,s0
   1184c:	c8cff0ef          	jal	ra,10cd8 <d_append_char>
   11850:	03e00593          	li	a1,62
   11854:	8522                	mv	a0,s0
   11856:	c82ff0ef          	jal	ra,10cd8 <d_append_char>
   1185a:	ad21                	j	11e72 <d_print_comp+0xdd4>
   1185c:	4650                	lw	a2,12(a2)
   1185e:	45c5                	li	a1,17
   11860:	8522                	mv	a0,s0
   11862:	1f1000ef          	jal	ra,12252 <d_print_expr_op>
   11866:	a531                	j	11e72 <d_print_comp+0xdd4>
   11868:	00c62a83          	lw	s5,12(a2)
   1186c:	03200713          	li	a4,50
   11870:	01062983          	lw	s3,16(a2)
   11874:	000aa783          	lw	a5,0(s5)
   11878:	06e79f63          	bne	a5,a4,118f6 <d_print_comp+0x858>
   1187c:	00caa783          	lw	a5,12(s5)
   11880:	000255b7          	lui	a1,0x25
   11884:	dc058593          	addi	a1,a1,-576 # 24dc0 <cplus_demangle_operators+0x64c>
   11888:	0007aa03          	lw	s4,0(a5)
   1188c:	8552                	mv	a0,s4
   1188e:	1aa070ef          	jal	ra,18a38 <strcmp>
   11892:	e505                	bnez	a0,118ba <d_print_comp+0x81c>
   11894:	0009a703          	lw	a4,0(s3)
   11898:	478d                	li	a5,3
   1189a:	02f71063          	bne	a4,a5,118ba <d_print_comp+0x81c>
   1189e:	00c9a783          	lw	a5,12(s3)
   118a2:	4705                	li	a4,1
   118a4:	4394                	lw	a3,0(a5)
   118a6:	00e69a63          	bne	a3,a4,118ba <d_print_comp+0x81c>
   118aa:	0109a703          	lw	a4,16(s3)
   118ae:	4314                	lw	a3,0(a4)
   118b0:	02900713          	li	a4,41
   118b4:	00e69363          	bne	a3,a4,118ba <d_print_comp+0x81c>
   118b8:	89be                	mv	s3,a5
   118ba:	0009a703          	lw	a4,0(s3)
   118be:	03900793          	li	a5,57
   118c2:	00f71a63          	bne	a4,a5,118d6 <d_print_comp+0x838>
   118c6:	00c9a603          	lw	a2,12(s3)
   118ca:	45c5                	li	a1,17
   118cc:	8522                	mv	a0,s0
   118ce:	19f000ef          	jal	ra,1226c <d_print_subexpr>
   118d2:	8656                	mv	a2,s5
   118d4:	b769                	j	1185e <d_print_comp+0x7c0>
   118d6:	000255b7          	lui	a1,0x25
   118da:	dc458593          	addi	a1,a1,-572 # 24dc4 <cplus_demangle_operators+0x650>
   118de:	8552                	mv	a0,s4
   118e0:	158070ef          	jal	ra,18a38 <strcmp>
   118e4:	e91d                	bnez	a0,1191a <d_print_comp+0x87c>
   118e6:	85ce                	mv	a1,s3
   118e8:	8522                	mv	a0,s0
   118ea:	e50ff0ef          	jal	ra,10f3a <d_find_pack>
   118ee:	c52ff0ef          	jal	ra,10d40 <d_pack_length>
   118f2:	85aa                	mv	a1,a0
   118f4:	bad1                	j	112c8 <d_print_comp+0x22a>
   118f6:	03400713          	li	a4,52
   118fa:	06e78663          	beq	a5,a4,11966 <d_print_comp+0x8c8>
   118fe:	4a01                	li	s4,0
   11900:	8656                	mv	a2,s5
   11902:	45c5                	li	a1,17
   11904:	8522                	mv	a0,s0
   11906:	14d000ef          	jal	ra,12252 <d_print_expr_op>
   1190a:	060a1e63          	bnez	s4,11986 <d_print_comp+0x8e8>
   1190e:	864e                	mv	a2,s3
   11910:	45c5                	li	a1,17
   11912:	8522                	mv	a0,s0
   11914:	159000ef          	jal	ra,1226c <d_print_subexpr>
   11918:	aba9                	j	11e72 <d_print_comp+0xdd4>
   1191a:	000255b7          	lui	a1,0x25
   1191e:	dc858593          	addi	a1,a1,-568 # 24dc8 <cplus_demangle_operators+0x654>
   11922:	8552                	mv	a0,s4
   11924:	114070ef          	jal	ra,18a38 <strcmp>
   11928:	892a                	mv	s2,a0
   1192a:	f979                	bnez	a0,11900 <d_print_comp+0x862>
   1192c:	02f00a13          	li	s4,47
   11930:	04b00a93          	li	s5,75
   11934:	0009a783          	lw	a5,0(s3)
   11938:	03479363          	bne	a5,s4,1195e <d_print_comp+0x8c0>
   1193c:	00c9a783          	lw	a5,12(s3)
   11940:	cf99                	beqz	a5,1195e <d_print_comp+0x8c0>
   11942:	4398                	lw	a4,0(a5)
   11944:	01571f63          	bne	a4,s5,11962 <d_print_comp+0x8c4>
   11948:	47cc                	lw	a1,12(a5)
   1194a:	8522                	mv	a0,s0
   1194c:	deeff0ef          	jal	ra,10f3a <d_find_pack>
   11950:	bf0ff0ef          	jal	ra,10d40 <d_pack_length>
   11954:	992a                	add	s2,s2,a0
   11956:	0109a983          	lw	s3,16(s3)
   1195a:	fc099de3          	bnez	s3,11934 <d_print_comp+0x896>
   1195e:	85ca                	mv	a1,s2
   11960:	b2a5                	j	112c8 <d_print_comp+0x22a>
   11962:	0905                	addi	s2,s2,1
   11964:	bfcd                	j	11956 <d_print_comp+0x8b8>
   11966:	02800593          	li	a1,40
   1196a:	b6eff0ef          	jal	ra,10cd8 <d_append_char>
   1196e:	00caa603          	lw	a2,12(s5)
   11972:	8522                	mv	a0,s0
   11974:	45c5                	li	a1,17
   11976:	f28ff0ef          	jal	ra,1109e <d_print_comp>
   1197a:	02900593          	li	a1,41
   1197e:	8522                	mv	a0,s0
   11980:	b58ff0ef          	jal	ra,10cd8 <d_append_char>
   11984:	b769                	j	1190e <d_print_comp+0x870>
   11986:	000255b7          	lui	a1,0x25
   1198a:	dcc58593          	addi	a1,a1,-564 # 24dcc <cplus_demangle_operators+0x658>
   1198e:	8552                	mv	a0,s4
   11990:	0a8070ef          	jal	ra,18a38 <strcmp>
   11994:	864e                	mv	a2,s3
   11996:	800501e3          	beqz	a0,11198 <d_print_comp+0xfa>
   1199a:	000255b7          	lui	a1,0x25
   1199e:	15058593          	addi	a1,a1,336 # 25150 <cplus_demangle_operators+0x9dc>
   119a2:	8552                	mv	a0,s4
   119a4:	094070ef          	jal	ra,18a38 <strcmp>
   119a8:	f13d                	bnez	a0,1190e <d_print_comp+0x870>
   119aa:	02800593          	li	a1,40
   119ae:	8522                	mv	a0,s0
   119b0:	b28ff0ef          	jal	ra,10cd8 <d_append_char>
   119b4:	864e                	mv	a2,s3
   119b6:	45c5                	li	a1,17
   119b8:	8522                	mv	a0,s0
   119ba:	ee4ff0ef          	jal	ra,1109e <d_print_comp>
   119be:	a21d                	j	11ae4 <d_print_comp+0xa46>
   119c0:	4a1c                	lw	a5,16(a2)
   119c2:	4398                	lw	a4,0(a5)
   119c4:	03900793          	li	a5,57
   119c8:	fef71c63          	bne	a4,a5,111c0 <d_print_comp+0x122>
   119cc:	4650                	lw	a2,12(a2)
   119ce:	4648                	lw	a0,12(a2)
   119d0:	c632                	sw	a2,12(sp)
   119d2:	e9cff0ef          	jal	ra,1106e <op_is_new_cast.isra.0>
   119d6:	4632                	lw	a2,12(sp)
   119d8:	c915                	beqz	a0,11a0c <d_print_comp+0x96e>
   119da:	45c5                	li	a1,17
   119dc:	8522                	mv	a0,s0
   119de:	075000ef          	jal	ra,12252 <d_print_expr_op>
   119e2:	03c00593          	li	a1,60
   119e6:	8522                	mv	a0,s0
   119e8:	af0ff0ef          	jal	ra,10cd8 <d_append_char>
   119ec:	489c                	lw	a5,16(s1)
   119ee:	45c5                	li	a1,17
   119f0:	8522                	mv	a0,s0
   119f2:	47d0                	lw	a2,12(a5)
   119f4:	eaaff0ef          	jal	ra,1109e <d_print_comp>
   119f8:	000255b7          	lui	a1,0x25
   119fc:	dd058593          	addi	a1,a1,-560 # 24dd0 <cplus_demangle_operators+0x65c>
   11a00:	8522                	mv	a0,s0
   11a02:	b5aff0ef          	jal	ra,10d5c <d_append_string>
   11a06:	489c                	lw	a5,16(s1)
   11a08:	4b90                	lw	a2,16(a5)
   11a0a:	b775                	j	119b6 <d_print_comp+0x918>
   11a0c:	8626                	mv	a2,s1
   11a0e:	45c5                	li	a1,17
   11a10:	8522                	mv	a0,s0
   11a12:	0af000ef          	jal	ra,122c0 <d_maybe_print_fold_expression>
   11a16:	44051e63          	bnez	a0,11e72 <d_print_comp+0xdd4>
   11a1a:	44dc                	lw	a5,12(s1)
   11a1c:	03200713          	li	a4,50
   11a20:	4394                	lw	a3,0(a5)
   11a22:	02e69363          	bne	a3,a4,11a48 <d_print_comp+0x9aa>
   11a26:	47dc                	lw	a5,12(a5)
   11a28:	4705                	li	a4,1
   11a2a:	4794                	lw	a3,8(a5)
   11a2c:	00e69e63          	bne	a3,a4,11a48 <d_print_comp+0x9aa>
   11a30:	43dc                	lw	a5,4(a5)
   11a32:	0007c703          	lbu	a4,0(a5)
   11a36:	03e00793          	li	a5,62
   11a3a:	00f71763          	bne	a4,a5,11a48 <d_print_comp+0x9aa>
   11a3e:	02800593          	li	a1,40
   11a42:	8522                	mv	a0,s0
   11a44:	a94ff0ef          	jal	ra,10cd8 <d_append_char>
   11a48:	44dc                	lw	a5,12(s1)
   11a4a:	00025a37          	lui	s4,0x25
   11a4e:	dd4a0593          	addi	a1,s4,-556 # 24dd4 <cplus_demangle_operators+0x660>
   11a52:	47dc                	lw	a5,12(a5)
   11a54:	4388                	lw	a0,0(a5)
   11a56:	7e3060ef          	jal	ra,18a38 <strcmp>
   11a5a:	489c                	lw	a5,16(s1)
   11a5c:	47d0                	lw	a2,12(a5)
   11a5e:	ed19                	bnez	a0,11a7c <d_print_comp+0x9de>
   11a60:	4218                	lw	a4,0(a2)
   11a62:	478d                	li	a5,3
   11a64:	00f71c63          	bne	a4,a5,11a7c <d_print_comp+0x9de>
   11a68:	4a1c                	lw	a5,16(a2)
   11a6a:	4398                	lw	a4,0(a5)
   11a6c:	02900793          	li	a5,41
   11a70:	00f70563          	beq	a4,a5,11a7a <d_print_comp+0x9dc>
   11a74:	4785                	li	a5,1
   11a76:	10f42c23          	sw	a5,280(s0)
   11a7a:	4650                	lw	a2,12(a2)
   11a7c:	45c5                	li	a1,17
   11a7e:	8522                	mv	a0,s0
   11a80:	7ec000ef          	jal	ra,1226c <d_print_subexpr>
   11a84:	00c4a903          	lw	s2,12(s1)
   11a88:	000255b7          	lui	a1,0x25
   11a8c:	dd858593          	addi	a1,a1,-552 # 24dd8 <cplus_demangle_operators+0x664>
   11a90:	00c92783          	lw	a5,12(s2)
   11a94:	0007a983          	lw	s3,0(a5)
   11a98:	854e                	mv	a0,s3
   11a9a:	79f060ef          	jal	ra,18a38 <strcmp>
   11a9e:	e531                	bnez	a0,11aea <d_print_comp+0xa4c>
   11aa0:	05b00593          	li	a1,91
   11aa4:	8522                	mv	a0,s0
   11aa6:	a32ff0ef          	jal	ra,10cd8 <d_append_char>
   11aaa:	489c                	lw	a5,16(s1)
   11aac:	45c5                	li	a1,17
   11aae:	8522                	mv	a0,s0
   11ab0:	4b90                	lw	a2,16(a5)
   11ab2:	decff0ef          	jal	ra,1109e <d_print_comp>
   11ab6:	05d00593          	li	a1,93
   11aba:	8522                	mv	a0,s0
   11abc:	a1cff0ef          	jal	ra,10cd8 <d_append_char>
   11ac0:	44dc                	lw	a5,12(s1)
   11ac2:	03200713          	li	a4,50
   11ac6:	4394                	lw	a3,0(a5)
   11ac8:	3ae69563          	bne	a3,a4,11e72 <d_print_comp+0xdd4>
   11acc:	47dc                	lw	a5,12(a5)
   11ace:	4705                	li	a4,1
   11ad0:	4794                	lw	a3,8(a5)
   11ad2:	3ae69063          	bne	a3,a4,11e72 <d_print_comp+0xdd4>
   11ad6:	43dc                	lw	a5,4(a5)
   11ad8:	0007c703          	lbu	a4,0(a5)
   11adc:	03e00793          	li	a5,62
   11ae0:	38f71963          	bne	a4,a5,11e72 <d_print_comp+0xdd4>
   11ae4:	02900593          	li	a1,41
   11ae8:	b3b5                	j	11854 <d_print_comp+0x7b6>
   11aea:	dd4a0593          	addi	a1,s4,-556
   11aee:	854e                	mv	a0,s3
   11af0:	749060ef          	jal	ra,18a38 <strcmp>
   11af4:	c511                	beqz	a0,11b00 <d_print_comp+0xa62>
   11af6:	864a                	mv	a2,s2
   11af8:	45c5                	li	a1,17
   11afa:	8522                	mv	a0,s0
   11afc:	756000ef          	jal	ra,12252 <d_print_expr_op>
   11b00:	489c                	lw	a5,16(s1)
   11b02:	45c5                	li	a1,17
   11b04:	8522                	mv	a0,s0
   11b06:	4b90                	lw	a2,16(a5)
   11b08:	764000ef          	jal	ra,1226c <d_print_subexpr>
   11b0c:	bf55                	j	11ac0 <d_print_comp+0xa22>
   11b0e:	4a1c                	lw	a5,16(a2)
   11b10:	03b00713          	li	a4,59
   11b14:	4394                	lw	a3,0(a5)
   11b16:	eae69563          	bne	a3,a4,111c0 <d_print_comp+0x122>
   11b1a:	4b9c                	lw	a5,16(a5)
   11b1c:	4398                	lw	a4,0(a5)
   11b1e:	03c00793          	li	a5,60
   11b22:	e8f71f63          	bne	a4,a5,111c0 <d_print_comp+0x122>
   11b26:	45c5                	li	a1,17
   11b28:	798000ef          	jal	ra,122c0 <d_maybe_print_fold_expression>
   11b2c:	34051363          	bnez	a0,11e72 <d_print_comp+0xdd4>
   11b30:	489c                	lw	a5,16(s1)
   11b32:	00c4aa03          	lw	s4,12(s1)
   11b36:	000255b7          	lui	a1,0x25
   11b3a:	47d0                	lw	a2,12(a5)
   11b3c:	4b9c                	lw	a5,16(a5)
   11b3e:	ddc58593          	addi	a1,a1,-548 # 24ddc <cplus_demangle_operators+0x668>
   11b42:	c632                	sw	a2,12(sp)
   11b44:	00c7a983          	lw	s3,12(a5)
   11b48:	0107a903          	lw	s2,16(a5)
   11b4c:	00ca2783          	lw	a5,12(s4)
   11b50:	4388                	lw	a0,0(a5)
   11b52:	6e7060ef          	jal	ra,18a38 <strcmp>
   11b56:	4632                	lw	a2,12(sp)
   11b58:	e905                	bnez	a0,11b88 <d_print_comp+0xaea>
   11b5a:	45c5                	li	a1,17
   11b5c:	8522                	mv	a0,s0
   11b5e:	70e000ef          	jal	ra,1226c <d_print_subexpr>
   11b62:	8652                	mv	a2,s4
   11b64:	45c5                	li	a1,17
   11b66:	8522                	mv	a0,s0
   11b68:	6ea000ef          	jal	ra,12252 <d_print_expr_op>
   11b6c:	45c5                	li	a1,17
   11b6e:	8522                	mv	a0,s0
   11b70:	864e                	mv	a2,s3
   11b72:	6fa000ef          	jal	ra,1226c <d_print_subexpr>
   11b76:	000255b7          	lui	a1,0x25
   11b7a:	de058593          	addi	a1,a1,-544 # 24de0 <cplus_demangle_operators+0x66c>
   11b7e:	8522                	mv	a0,s0
   11b80:	9dcff0ef          	jal	ra,10d5c <d_append_string>
   11b84:	864a                	mv	a2,s2
   11b86:	b369                	j	11910 <d_print_comp+0x872>
   11b88:	000255b7          	lui	a1,0x25
   11b8c:	de458593          	addi	a1,a1,-540 # 24de4 <cplus_demangle_operators+0x670>
   11b90:	8522                	mv	a0,s0
   11b92:	c632                	sw	a2,12(sp)
   11b94:	9c8ff0ef          	jal	ra,10d5c <d_append_string>
   11b98:	4632                	lw	a2,12(sp)
   11b9a:	465c                	lw	a5,12(a2)
   11b9c:	cb89                	beqz	a5,11bae <d_print_comp+0xb10>
   11b9e:	45c5                	li	a1,17
   11ba0:	8522                	mv	a0,s0
   11ba2:	25e9                	jal	1226c <d_print_subexpr>
   11ba4:	02000593          	li	a1,32
   11ba8:	8522                	mv	a0,s0
   11baa:	92eff0ef          	jal	ra,10cd8 <d_append_char>
   11bae:	864e                	mv	a2,s3
   11bb0:	45c5                	li	a1,17
   11bb2:	8522                	mv	a0,s0
   11bb4:	ceaff0ef          	jal	ra,1109e <d_print_comp>
   11bb8:	fc0916e3          	bnez	s2,11b84 <d_print_comp+0xae6>
   11bbc:	ac5d                	j	11e72 <d_print_comp+0xdd4>
   11bbe:	4658                	lw	a4,12(a2)
   11bc0:	02700693          	li	a3,39
   11bc4:	4310                	lw	a2,0(a4)
   11bc6:	10d61b63          	bne	a2,a3,11cdc <d_print_comp+0xc3e>
   11bca:	4758                	lw	a4,12(a4)
   11bcc:	01072903          	lw	s2,16(a4)
   11bd0:	4719                	li	a4,6
   11bd2:	05276163          	bltu	a4,s2,11c14 <d_print_comp+0xb76>
   11bd6:	04090263          	beqz	s2,11c1a <d_print_comp+0xb7c>
   11bda:	4898                	lw	a4,16(s1)
   11bdc:	4318                	lw	a4,0(a4)
   11bde:	ef15                	bnez	a4,11c1a <d_print_comp+0xb7c>
   11be0:	03e00713          	li	a4,62
   11be4:	00e79663          	bne	a5,a4,11bf0 <d_print_comp+0xb52>
   11be8:	02d00593          	li	a1,45
   11bec:	8ecff0ef          	jal	ra,10cd8 <d_append_char>
   11bf0:	4890                	lw	a2,16(s1)
   11bf2:	45c5                	li	a1,17
   11bf4:	8522                	mv	a0,s0
   11bf6:	ca8ff0ef          	jal	ra,1109e <d_print_comp>
   11bfa:	1979                	addi	s2,s2,-2
   11bfc:	4791                	li	a5,4
   11bfe:	2727ea63          	bltu	a5,s2,11e72 <d_print_comp+0xdd4>
   11c02:	000247b7          	lui	a5,0x24
   11c06:	09c78793          	addi	a5,a5,156 # 2409c <_ZTVN10__cxxabiv117__class_type_infoE+0x414>
   11c0a:	090a                	slli	s2,s2,0x2
   11c0c:	993e                	add	s2,s2,a5
   11c0e:	00092783          	lw	a5,0(s2)
   11c12:	8782                	jr	a5
   11c14:	471d                	li	a4,7
   11c16:	08e90363          	beq	s2,a4,11c9c <d_print_comp+0xbfe>
   11c1a:	02800593          	li	a1,40
   11c1e:	8522                	mv	a0,s0
   11c20:	8b8ff0ef          	jal	ra,10cd8 <d_append_char>
   11c24:	44d0                	lw	a2,12(s1)
   11c26:	45c5                	li	a1,17
   11c28:	8522                	mv	a0,s0
   11c2a:	c74ff0ef          	jal	ra,1109e <d_print_comp>
   11c2e:	02900593          	li	a1,41
   11c32:	8522                	mv	a0,s0
   11c34:	8a4ff0ef          	jal	ra,10cd8 <d_append_char>
   11c38:	4098                	lw	a4,0(s1)
   11c3a:	03e00793          	li	a5,62
   11c3e:	00f71763          	bne	a4,a5,11c4c <d_print_comp+0xbae>
   11c42:	02d00593          	li	a1,45
   11c46:	8522                	mv	a0,s0
   11c48:	890ff0ef          	jal	ra,10cd8 <d_append_char>
   11c4c:	47a1                	li	a5,8
   11c4e:	00f91763          	bne	s2,a5,11c5c <d_print_comp+0xbbe>
   11c52:	05b00593          	li	a1,91
   11c56:	8522                	mv	a0,s0
   11c58:	880ff0ef          	jal	ra,10cd8 <d_append_char>
   11c5c:	4890                	lw	a2,16(s1)
   11c5e:	45c5                	li	a1,17
   11c60:	8522                	mv	a0,s0
   11c62:	c3cff0ef          	jal	ra,1109e <d_print_comp>
   11c66:	47a1                	li	a5,8
   11c68:	20f91563          	bne	s2,a5,11e72 <d_print_comp+0xdd4>
   11c6c:	05d00593          	li	a1,93
   11c70:	b6d5                	j	11854 <d_print_comp+0x7b6>
   11c72:	07500593          	li	a1,117
   11c76:	bef9                	j	11854 <d_print_comp+0x7b6>
   11c78:	06c00593          	li	a1,108
   11c7c:	bee1                	j	11854 <d_print_comp+0x7b6>
   11c7e:	000255b7          	lui	a1,0x25
   11c82:	dec58593          	addi	a1,a1,-532 # 24dec <cplus_demangle_operators+0x678>
   11c86:	b4b9                	j	116d4 <d_print_comp+0x636>
   11c88:	000255b7          	lui	a1,0x25
   11c8c:	df058593          	addi	a1,a1,-528 # 24df0 <cplus_demangle_operators+0x67c>
   11c90:	b491                	j	116d4 <d_print_comp+0x636>
   11c92:	000255b7          	lui	a1,0x25
   11c96:	df458593          	addi	a1,a1,-524 # 24df4 <cplus_demangle_operators+0x680>
   11c9a:	bc2d                	j	116d4 <d_print_comp+0x636>
   11c9c:	4898                	lw	a4,16(s1)
   11c9e:	4314                	lw	a3,0(a4)
   11ca0:	fead                	bnez	a3,11c1a <d_print_comp+0xb7c>
   11ca2:	4b10                	lw	a2,16(a4)
   11ca4:	4685                	li	a3,1
   11ca6:	f6d61ae3          	bne	a2,a3,11c1a <d_print_comp+0xb7c>
   11caa:	03d00693          	li	a3,61
   11cae:	f6d796e3          	bne	a5,a3,11c1a <d_print_comp+0xb7c>
   11cb2:	475c                	lw	a5,12(a4)
   11cb4:	03000713          	li	a4,48
   11cb8:	0007c783          	lbu	a5,0(a5)
   11cbc:	00e78b63          	beq	a5,a4,11cd2 <d_print_comp+0xc34>
   11cc0:	03100713          	li	a4,49
   11cc4:	f4e79be3          	bne	a5,a4,11c1a <d_print_comp+0xb7c>
   11cc8:	000255b7          	lui	a1,0x25
   11ccc:	e0058593          	addi	a1,a1,-512 # 24e00 <cplus_demangle_operators+0x68c>
   11cd0:	b411                	j	116d4 <d_print_comp+0x636>
   11cd2:	000255b7          	lui	a1,0x25
   11cd6:	df858593          	addi	a1,a1,-520 # 24df8 <cplus_demangle_operators+0x684>
   11cda:	baed                	j	116d4 <d_print_comp+0x636>
   11cdc:	4901                	li	s2,0
   11cde:	bf35                	j	11c1a <d_print_comp+0xb7c>
   11ce0:	464c                	lw	a1,12(a2)
   11ce2:	de6ff06f          	j	112c8 <d_print_comp+0x22a>
   11ce6:	000255b7          	lui	a1,0x25
   11cea:	e0858593          	addi	a1,a1,-504 # 24e08 <cplus_demangle_operators+0x694>
   11cee:	e24ff06f          	j	11312 <d_print_comp+0x274>
   11cf2:	4650                	lw	a2,12(a2)
   11cf4:	45c5                	li	a1,17
   11cf6:	ba8ff0ef          	jal	ra,1109e <d_print_comp>
   11cfa:	e24ff06f          	j	1131e <d_print_comp+0x280>
   11cfe:	00c64583          	lbu	a1,12(a2)
   11d02:	be89                	j	11854 <d_print_comp+0x7b6>
   11d04:	000255b7          	lui	a1,0x25
   11d08:	e1858593          	addi	a1,a1,-488 # 24e18 <cplus_demangle_operators+0x6a4>
   11d0c:	850ff0ef          	jal	ra,10d5c <d_append_string>
   11d10:	44d0                	lw	a2,12(s1)
   11d12:	b155                	j	119b6 <d_print_comp+0x918>
   11d14:	464c                	lw	a1,12(a2)
   11d16:	a24ff0ef          	jal	ra,10f3a <d_find_pack>
   11d1a:	00c4aa03          	lw	s4,12(s1)
   11d1e:	e911                	bnez	a0,11d32 <d_print_comp+0xc94>
   11d20:	45c5                	li	a1,17
   11d22:	8652                	mv	a2,s4
   11d24:	8522                	mv	a0,s0
   11d26:	2399                	jal	1226c <d_print_subexpr>
   11d28:	000255b7          	lui	a1,0x25
   11d2c:	e2458593          	addi	a1,a1,-476 # 24e24 <cplus_demangle_operators+0x6b0>
   11d30:	b255                	j	116d4 <d_print_comp+0x636>
   11d32:	80eff0ef          	jal	ra,10d40 <d_pack_length>
   11d36:	89aa                	mv	s3,a0
   11d38:	fff50a93          	addi	s5,a0,-1
   11d3c:	00025b37          	lui	s6,0x25
   11d40:	13395963          	bge	s2,s3,11e72 <d_print_comp+0xdd4>
   11d44:	13242223          	sw	s2,292(s0)
   11d48:	8652                	mv	a2,s4
   11d4a:	45c5                	li	a1,17
   11d4c:	8522                	mv	a0,s0
   11d4e:	b50ff0ef          	jal	ra,1109e <d_print_comp>
   11d52:	01595763          	bge	s2,s5,11d60 <d_print_comp+0xcc2>
   11d56:	da4b0593          	addi	a1,s6,-604 # 24da4 <cplus_demangle_operators+0x630>
   11d5a:	8522                	mv	a0,s0
   11d5c:	800ff0ef          	jal	ra,10d5c <d_append_string>
   11d60:	0905                	addi	s2,s2,1
   11d62:	bff9                	j	11d40 <d_print_comp+0xca2>
   11d64:	00c62903          	lw	s2,12(a2)
   11d68:	00091763          	bnez	s2,11d76 <d_print_comp+0xcd8>
   11d6c:	000255b7          	lui	a1,0x25
   11d70:	e2858593          	addi	a1,a1,-472 # 24e28 <cplus_demangle_operators+0x6b4>
   11d74:	b285                	j	116d4 <d_print_comp+0x636>
   11d76:	000255b7          	lui	a1,0x25
   11d7a:	e3058593          	addi	a1,a1,-464 # 24e30 <cplus_demangle_operators+0x6bc>
   11d7e:	fdffe0ef          	jal	ra,10d5c <d_append_string>
   11d82:	85ca                	mv	a1,s2
   11d84:	8522                	mv	a0,s0
   11d86:	8ecff0ef          	jal	ra,10e72 <d_append_num>
   11d8a:	bad1                	j	1175e <d_print_comp+0x6c0>
   11d8c:	000255b7          	lui	a1,0x25
   11d90:	e3858593          	addi	a1,a1,-456 # 24e38 <cplus_demangle_operators+0x6c4>
   11d94:	d7eff06f          	j	11312 <d_print_comp+0x274>
   11d98:	000255b7          	lui	a1,0x25
   11d9c:	e5858593          	addi	a1,a1,-424 # 24e58 <cplus_demangle_operators+0x6e4>
   11da0:	d72ff06f          	j	11312 <d_print_comp+0x274>
   11da4:	000255b7          	lui	a1,0x25
   11da8:	e7858593          	addi	a1,a1,-392 # 24e78 <cplus_demangle_operators+0x704>
   11dac:	fb1fe0ef          	jal	ra,10d5c <d_append_string>
   11db0:	12042783          	lw	a5,288(s0)
   11db4:	44d0                	lw	a2,12(s1)
   11db6:	45c5                	li	a1,17
   11db8:	0785                	addi	a5,a5,1
   11dba:	12f42023          	sw	a5,288(s0)
   11dbe:	8522                	mv	a0,s0
   11dc0:	adeff0ef          	jal	ra,1109e <d_print_comp>
   11dc4:	12042783          	lw	a5,288(s0)
   11dc8:	000255b7          	lui	a1,0x25
   11dcc:	e8458593          	addi	a1,a1,-380 # 24e84 <cplus_demangle_operators+0x710>
   11dd0:	17fd                	addi	a5,a5,-1
   11dd2:	12f42023          	sw	a5,288(s0)
   11dd6:	8522                	mv	a0,s0
   11dd8:	f85fe0ef          	jal	ra,10d5c <d_append_string>
   11ddc:	488c                	lw	a1,16(s1)
   11dde:	0585                	addi	a1,a1,1
   11de0:	b755                	j	11d84 <d_print_comp+0xce6>
   11de2:	000255b7          	lui	a1,0x25
   11de6:	e8858593          	addi	a1,a1,-376 # 24e88 <cplus_demangle_operators+0x714>
   11dea:	f73fe0ef          	jal	ra,10d5c <d_append_string>
   11dee:	44cc                	lw	a1,12(s1)
   11df0:	b7fd                	j	11dde <d_print_comp+0xd40>
   11df2:	4650                	lw	a2,12(a2)
   11df4:	45c5                	li	a1,17
   11df6:	aa8ff0ef          	jal	ra,1109e <d_print_comp>
   11dfa:	000255b7          	lui	a1,0x25
   11dfe:	e9858593          	addi	a1,a1,-360 # 24e98 <cplus_demangle_operators+0x724>
   11e02:	b3cff06f          	j	1113e <d_print_comp+0xa0>
   11e06:	4789                	li	a5,2
   11e08:	02fb1863          	bne	s6,a5,11e38 <d_print_comp+0xd9a>
   11e0c:	01092903          	lw	s2,16(s2)
   11e10:	04700793          	li	a5,71
   11e14:	00092703          	lw	a4,0(s2)
   11e18:	00f71463          	bne	a4,a5,11e20 <d_print_comp+0xd82>
   11e1c:	00c92903          	lw	s2,12(s2)
   11e20:	00499a13          	slli	s4,s3,0x4
   11e24:	9a56                	add	s4,s4,s5
   11e26:	4c91                	li	s9,4
   11e28:	b8090c63          	beqz	s2,111c0 <d_print_comp+0x122>
   11e2c:	00092503          	lw	a0,0(s2)
   11e30:	b21fe0ef          	jal	ra,10950 <is_fnqual_component_type>
   11e34:	bc051563          	bnez	a0,111fe <d_print_comp+0x160>
   11e38:	00092703          	lw	a4,0(s2)
   11e3c:	4791                	li	a5,4
   11e3e:	00f71763          	bne	a4,a5,11e4c <d_print_comp+0xdae>
   11e42:	083c                	addi	a5,sp,24
   11e44:	cc62                	sw	s8,24(sp)
   11e46:	10f42823          	sw	a5,272(s0)
   11e4a:	ce4a                	sw	s2,28(sp)
   11e4c:	4890                	lw	a2,16(s1)
   11e4e:	45c5                	li	a1,17
   11e50:	8522                	mv	a0,s0
   11e52:	a4cff0ef          	jal	ra,1109e <d_print_comp>
   11e56:	00092703          	lw	a4,0(s2)
   11e5a:	4791                	li	a5,4
   11e5c:	00f71563          	bne	a4,a5,11e66 <d_print_comp+0xdc8>
   11e60:	47e2                	lw	a5,24(sp)
   11e62:	10f42823          	sw	a5,272(s0)
   11e66:	0992                	slli	s3,s3,0x4
   11e68:	99d6                	add	s3,s3,s5
   11e6a:	bd3a9363          	bne	s5,s3,11230 <d_print_comp+0x192>
   11e6e:	11742a23          	sw	s7,276(s0)
   11e72:	47d2                	lw	a5,20(sp)
   11e74:	12f42623          	sw	a5,300(s0)
   11e78:	40dc                	lw	a5,4(s1)
   11e7a:	17fd                	addi	a5,a5,-1
   11e7c:	c0dc                	sw	a5,4(s1)
   11e7e:	11c42783          	lw	a5,284(s0)
   11e82:	17fd                	addi	a5,a5,-1
   11e84:	10f42e23          	sw	a5,284(s0)
   11e88:	a50ff06f          	j	110d8 <d_print_comp+0x3a>

00011e8c <d_print_mod>:
   11e8c:	421c                	lw	a5,0(a2)
   11e8e:	1141                	addi	sp,sp,-16
   11e90:	c226                	sw	s1,4(sp)
   11e92:	c606                	sw	ra,12(sp)
   11e94:	c422                	sw	s0,8(sp)
   11e96:	470d                	li	a4,3
   11e98:	84b2                	mv	s1,a2
   11e9a:	10e78463          	beq	a5,a4,11fa2 <d_print_mod+0x116>
   11e9e:	179d                	addi	a5,a5,-25
   11ea0:	03700713          	li	a4,55
   11ea4:	842a                	mv	s0,a0
   11ea6:	10f76e63          	bltu	a4,a5,11fc2 <d_print_mod+0x136>
   11eaa:	00024737          	lui	a4,0x24
   11eae:	078a                	slli	a5,a5,0x2
   11eb0:	0b070713          	addi	a4,a4,176 # 240b0 <_ZTVN10__cxxabiv117__class_type_infoE+0x428>
   11eb4:	97ba                	add	a5,a5,a4
   11eb6:	439c                	lw	a5,0(a5)
   11eb8:	8782                	jr	a5
   11eba:	000255b7          	lui	a1,0x25
   11ebe:	ea458593          	addi	a1,a1,-348 # 24ea4 <cplus_demangle_operators+0x730>
   11ec2:	8522                	mv	a0,s0
   11ec4:	4422                	lw	s0,8(sp)
   11ec6:	40b2                	lw	ra,12(sp)
   11ec8:	4492                	lw	s1,4(sp)
   11eca:	0141                	addi	sp,sp,16
   11ecc:	e91fe06f          	j	10d5c <d_append_string>
   11ed0:	000255b7          	lui	a1,0x25
   11ed4:	eb058593          	addi	a1,a1,-336 # 24eb0 <cplus_demangle_operators+0x73c>
   11ed8:	b7ed                	j	11ec2 <d_print_mod+0x36>
   11eda:	000255b7          	lui	a1,0x25
   11ede:	ebc58593          	addi	a1,a1,-324 # 24ebc <cplus_demangle_operators+0x748>
   11ee2:	b7c5                	j	11ec2 <d_print_mod+0x36>
   11ee4:	000255b7          	lui	a1,0x25
   11ee8:	ec458593          	addi	a1,a1,-316 # 24ec4 <cplus_demangle_operators+0x750>
   11eec:	bfd9                	j	11ec2 <d_print_mod+0x36>
   11eee:	000255b7          	lui	a1,0x25
   11ef2:	ed858593          	addi	a1,a1,-296 # 24ed8 <cplus_demangle_operators+0x764>
   11ef6:	8522                	mv	a0,s0
   11ef8:	e65fe0ef          	jal	ra,10d5c <d_append_string>
   11efc:	489c                	lw	a5,16(s1)
   11efe:	c7e1                	beqz	a5,11fc6 <d_print_mod+0x13a>
   11f00:	02800593          	li	a1,40
   11f04:	8522                	mv	a0,s0
   11f06:	dd3fe0ef          	jal	ra,10cd8 <d_append_char>
   11f0a:	4890                	lw	a2,16(s1)
   11f0c:	45c5                	li	a1,17
   11f0e:	8522                	mv	a0,s0
   11f10:	98eff0ef          	jal	ra,1109e <d_print_comp>
   11f14:	02900593          	li	a1,41
   11f18:	a005                	j	11f38 <d_print_mod+0xac>
   11f1a:	000255b7          	lui	a1,0x25
   11f1e:	ee458593          	addi	a1,a1,-284 # 24ee4 <cplus_demangle_operators+0x770>
   11f22:	bfd1                	j	11ef6 <d_print_mod+0x6a>
   11f24:	02000593          	li	a1,32
   11f28:	db1fe0ef          	jal	ra,10cd8 <d_append_char>
   11f2c:	4890                	lw	a2,16(s1)
   11f2e:	45c5                	li	a1,17
   11f30:	8522                	mv	a0,s0
   11f32:	a895                	j	11fa6 <d_print_mod+0x11a>
   11f34:	02a00593          	li	a1,42
   11f38:	8522                	mv	a0,s0
   11f3a:	4422                	lw	s0,8(sp)
   11f3c:	40b2                	lw	ra,12(sp)
   11f3e:	4492                	lw	s1,4(sp)
   11f40:	0141                	addi	sp,sp,16
   11f42:	d97fe06f          	j	10cd8 <d_append_char>
   11f46:	02000593          	li	a1,32
   11f4a:	d8ffe0ef          	jal	ra,10cd8 <d_append_char>
   11f4e:	02600593          	li	a1,38
   11f52:	b7dd                	j	11f38 <d_print_mod+0xac>
   11f54:	02000593          	li	a1,32
   11f58:	d81fe0ef          	jal	ra,10cd8 <d_append_char>
   11f5c:	000255b7          	lui	a1,0x25
   11f60:	eec58593          	addi	a1,a1,-276 # 24eec <cplus_demangle_operators+0x778>
   11f64:	bfb9                	j	11ec2 <d_print_mod+0x36>
   11f66:	000255b7          	lui	a1,0x25
   11f6a:	ef058593          	addi	a1,a1,-272 # 24ef0 <cplus_demangle_operators+0x77c>
   11f6e:	bf91                	j	11ec2 <d_print_mod+0x36>
   11f70:	000255b7          	lui	a1,0x25
   11f74:	efc58593          	addi	a1,a1,-260 # 24efc <cplus_demangle_operators+0x788>
   11f78:	b7a9                	j	11ec2 <d_print_mod+0x36>
   11f7a:	10454703          	lbu	a4,260(a0)
   11f7e:	02800793          	li	a5,40
   11f82:	00f70663          	beq	a4,a5,11f8e <d_print_mod+0x102>
   11f86:	02000593          	li	a1,32
   11f8a:	d4ffe0ef          	jal	ra,10cd8 <d_append_char>
   11f8e:	44d0                	lw	a2,12(s1)
   11f90:	45c5                	li	a1,17
   11f92:	8522                	mv	a0,s0
   11f94:	90aff0ef          	jal	ra,1109e <d_print_comp>
   11f98:	000255b7          	lui	a1,0x25
   11f9c:	f0858593          	addi	a1,a1,-248 # 24f08 <cplus_demangle_operators+0x794>
   11fa0:	b70d                	j	11ec2 <d_print_mod+0x36>
   11fa2:	4650                	lw	a2,12(a2)
   11fa4:	45c5                	li	a1,17
   11fa6:	4422                	lw	s0,8(sp)
   11fa8:	40b2                	lw	ra,12(sp)
   11faa:	4492                	lw	s1,4(sp)
   11fac:	0141                	addi	sp,sp,16
   11fae:	8f0ff06f          	j	1109e <d_print_comp>
   11fb2:	000255b7          	lui	a1,0x25
   11fb6:	f0c58593          	addi	a1,a1,-244 # 24f0c <cplus_demangle_operators+0x798>
   11fba:	da3fe0ef          	jal	ra,10d5c <d_append_string>
   11fbe:	44d0                	lw	a2,12(s1)
   11fc0:	b7b1                	j	11f0c <d_print_mod+0x80>
   11fc2:	8626                	mv	a2,s1
   11fc4:	b7ad                	j	11f2e <d_print_mod+0xa2>
   11fc6:	40b2                	lw	ra,12(sp)
   11fc8:	4422                	lw	s0,8(sp)
   11fca:	4492                	lw	s1,4(sp)
   11fcc:	0141                	addi	sp,sp,16
   11fce:	8082                	ret

00011fd0 <d_print_function_type>:
   11fd0:	1101                	addi	sp,sp,-32
   11fd2:	ca26                	sw	s1,20(sp)
   11fd4:	8736                	mv	a4,a3
   11fd6:	84b6                	mv	s1,a3
   11fd8:	000246b7          	lui	a3,0x24
   11fdc:	cc22                	sw	s0,24(sp)
   11fde:	c84a                	sw	s2,16(sp)
   11fe0:	ce06                	sw	ra,28(sp)
   11fe2:	8932                	mv	s2,a2
   11fe4:	c64e                	sw	s3,12(sp)
   11fe6:	c452                	sw	s4,8(sp)
   11fe8:	842a                	mv	s0,a0
   11fea:	4649                	li	a2,18
   11fec:	19068693          	addi	a3,a3,400 # 24190 <_ZTVN10__cxxabiv117__class_type_infoE+0x508>
   11ff0:	e319                	bnez	a4,11ff6 <d_print_function_type+0x26>
   11ff2:	4981                	li	s3,0
   11ff4:	a0b9                	j	12042 <d_print_function_type+0x72>
   11ff6:	471c                	lw	a5,8(a4)
   11ff8:	ffed                	bnez	a5,11ff2 <d_print_function_type+0x22>
   11ffa:	435c                	lw	a5,4(a4)
   11ffc:	439c                	lw	a5,0(a5)
   11ffe:	179d                	addi	a5,a5,-25
   12000:	00f66663          	bltu	a2,a5,1200c <d_print_function_type+0x3c>
   12004:	078a                	slli	a5,a5,0x2
   12006:	97b6                	add	a5,a5,a3
   12008:	439c                	lw	a5,0(a5)
   1200a:	8782                	jr	a5
   1200c:	4318                	lw	a4,0(a4)
   1200e:	b7cd                	j	11ff0 <d_print_function_type+0x20>
   12010:	10444783          	lbu	a5,260(s0)
   12014:	02800713          	li	a4,40
   12018:	0fd7f793          	andi	a5,a5,253
   1201c:	00e78d63          	beq	a5,a4,12036 <d_print_function_type+0x66>
   12020:	10444703          	lbu	a4,260(s0)
   12024:	02000793          	li	a5,32
   12028:	00f70763          	beq	a4,a5,12036 <d_print_function_type+0x66>
   1202c:	02000593          	li	a1,32
   12030:	8522                	mv	a0,s0
   12032:	ca7fe0ef          	jal	ra,10cd8 <d_append_char>
   12036:	02800593          	li	a1,40
   1203a:	8522                	mv	a0,s0
   1203c:	c9dfe0ef          	jal	ra,10cd8 <d_append_char>
   12040:	4985                	li	s3,1
   12042:	11442a03          	lw	s4,276(s0)
   12046:	4681                	li	a3,0
   12048:	10042a23          	sw	zero,276(s0)
   1204c:	8626                	mv	a2,s1
   1204e:	45c5                	li	a1,17
   12050:	8522                	mv	a0,s0
   12052:	2881                	jal	120a2 <d_print_mod_list>
   12054:	00098763          	beqz	s3,12062 <d_print_function_type+0x92>
   12058:	02900593          	li	a1,41
   1205c:	8522                	mv	a0,s0
   1205e:	c7bfe0ef          	jal	ra,10cd8 <d_append_char>
   12062:	02800593          	li	a1,40
   12066:	8522                	mv	a0,s0
   12068:	c71fe0ef          	jal	ra,10cd8 <d_append_char>
   1206c:	01092603          	lw	a2,16(s2)
   12070:	c609                	beqz	a2,1207a <d_print_function_type+0xaa>
   12072:	45c5                	li	a1,17
   12074:	8522                	mv	a0,s0
   12076:	828ff0ef          	jal	ra,1109e <d_print_comp>
   1207a:	8522                	mv	a0,s0
   1207c:	02900593          	li	a1,41
   12080:	c59fe0ef          	jal	ra,10cd8 <d_append_char>
   12084:	8626                	mv	a2,s1
   12086:	8522                	mv	a0,s0
   12088:	4685                	li	a3,1
   1208a:	45c5                	li	a1,17
   1208c:	2819                	jal	120a2 <d_print_mod_list>
   1208e:	40f2                	lw	ra,28(sp)
   12090:	11442a23          	sw	s4,276(s0)
   12094:	4462                	lw	s0,24(sp)
   12096:	44d2                	lw	s1,20(sp)
   12098:	4942                	lw	s2,16(sp)
   1209a:	49b2                	lw	s3,12(sp)
   1209c:	4a22                	lw	s4,8(sp)
   1209e:	6105                	addi	sp,sp,32
   120a0:	8082                	ret

000120a2 <d_print_mod_list>:
   120a2:	7139                	addi	sp,sp,-64
   120a4:	dc22                	sw	s0,56(sp)
   120a6:	da26                	sw	s1,52(sp)
   120a8:	d452                	sw	s4,40(sp)
   120aa:	d256                	sw	s5,36(sp)
   120ac:	d05a                	sw	s6,32(sp)
   120ae:	ce5e                	sw	s7,28(sp)
   120b0:	cc62                	sw	s8,24(sp)
   120b2:	de06                	sw	ra,60(sp)
   120b4:	d84a                	sw	s2,48(sp)
   120b6:	d64e                	sw	s3,44(sp)
   120b8:	842a                	mv	s0,a0
   120ba:	84b2                	mv	s1,a2
   120bc:	8a36                	mv	s4,a3
   120be:	4a85                	li	s5,1
   120c0:	02900b13          	li	s6,41
   120c4:	02a00b93          	li	s7,42
   120c8:	4c09                	li	s8,2
   120ca:	c0b1                	beqz	s1,1210e <d_print_mod_list+0x6c>
   120cc:	11842783          	lw	a5,280(s0)
   120d0:	ef9d                	bnez	a5,1210e <d_print_mod_list+0x6c>
   120d2:	449c                	lw	a5,8(s1)
   120d4:	ef81                	bnez	a5,120ec <d_print_mod_list+0x4a>
   120d6:	40d0                	lw	a2,4(s1)
   120d8:	00062983          	lw	s3,0(a2)
   120dc:	000a1a63          	bnez	s4,120f0 <d_print_mod_list+0x4e>
   120e0:	854e                	mv	a0,s3
   120e2:	c632                	sw	a2,12(sp)
   120e4:	86dfe0ef          	jal	ra,10950 <is_fnqual_component_type>
   120e8:	4632                	lw	a2,12(sp)
   120ea:	c119                	beqz	a0,120f0 <d_print_mod_list+0x4e>
   120ec:	4084                	lw	s1,0(s1)
   120ee:	bff1                	j	120ca <d_print_mod_list+0x28>
   120f0:	44dc                	lw	a5,12(s1)
   120f2:	0154a423          	sw	s5,8(s1)
   120f6:	11042903          	lw	s2,272(s0)
   120fa:	10f42823          	sw	a5,272(s0)
   120fe:	03699463          	bne	s3,s6,12126 <d_print_mod_list+0x84>
   12102:	4094                	lw	a3,0(s1)
   12104:	45c5                	li	a1,17
   12106:	8522                	mv	a0,s0
   12108:	35e1                	jal	11fd0 <d_print_function_type>
   1210a:	11242823          	sw	s2,272(s0)
   1210e:	50f2                	lw	ra,60(sp)
   12110:	5462                	lw	s0,56(sp)
   12112:	54d2                	lw	s1,52(sp)
   12114:	5942                	lw	s2,48(sp)
   12116:	59b2                	lw	s3,44(sp)
   12118:	5a22                	lw	s4,40(sp)
   1211a:	5a92                	lw	s5,36(sp)
   1211c:	5b02                	lw	s6,32(sp)
   1211e:	4bf2                	lw	s7,28(sp)
   12120:	4c62                	lw	s8,24(sp)
   12122:	6121                	addi	sp,sp,64
   12124:	8082                	ret
   12126:	01799763          	bne	s3,s7,12134 <d_print_mod_list+0x92>
   1212a:	4094                	lw	a3,0(s1)
   1212c:	45c5                	li	a1,17
   1212e:	8522                	mv	a0,s0
   12130:	2049                	jal	121b2 <d_print_array_type>
   12132:	bfe1                	j	1210a <d_print_mod_list+0x68>
   12134:	07899963          	bne	s3,s8,121a6 <d_print_mod_list+0x104>
   12138:	4650                	lw	a2,12(a2)
   1213a:	11442983          	lw	s3,276(s0)
   1213e:	45c5                	li	a1,17
   12140:	8522                	mv	a0,s0
   12142:	10042a23          	sw	zero,276(s0)
   12146:	f59fe0ef          	jal	ra,1109e <d_print_comp>
   1214a:	000255b7          	lui	a1,0x25
   1214e:	11342a23          	sw	s3,276(s0)
   12152:	c0458593          	addi	a1,a1,-1020 # 24c04 <cplus_demangle_operators+0x490>
   12156:	8522                	mv	a0,s0
   12158:	c05fe0ef          	jal	ra,10d5c <d_append_string>
   1215c:	40dc                	lw	a5,4(s1)
   1215e:	4b84                	lw	s1,16(a5)
   12160:	04700793          	li	a5,71
   12164:	4098                	lw	a4,0(s1)
   12166:	02f71663          	bne	a4,a5,12192 <d_print_mod_list+0xf0>
   1216a:	000255b7          	lui	a1,0x25
   1216e:	c0858593          	addi	a1,a1,-1016 # 24c08 <cplus_demangle_operators+0x494>
   12172:	8522                	mv	a0,s0
   12174:	be9fe0ef          	jal	ra,10d5c <d_append_string>
   12178:	488c                	lw	a1,16(s1)
   1217a:	8522                	mv	a0,s0
   1217c:	0585                	addi	a1,a1,1
   1217e:	cf5fe0ef          	jal	ra,10e72 <d_append_num>
   12182:	000255b7          	lui	a1,0x25
   12186:	c1858593          	addi	a1,a1,-1000 # 24c18 <cplus_demangle_operators+0x4a4>
   1218a:	8522                	mv	a0,s0
   1218c:	bd1fe0ef          	jal	ra,10d5c <d_append_string>
   12190:	44c4                	lw	s1,12(s1)
   12192:	4088                	lw	a0,0(s1)
   12194:	fbcfe0ef          	jal	ra,10950 <is_fnqual_component_type>
   12198:	fd65                	bnez	a0,12190 <d_print_mod_list+0xee>
   1219a:	8626                	mv	a2,s1
   1219c:	45c5                	li	a1,17
   1219e:	8522                	mv	a0,s0
   121a0:	efffe0ef          	jal	ra,1109e <d_print_comp>
   121a4:	b79d                	j	1210a <d_print_mod_list+0x68>
   121a6:	45c5                	li	a1,17
   121a8:	8522                	mv	a0,s0
   121aa:	31cd                	jal	11e8c <d_print_mod>
   121ac:	11242823          	sw	s2,272(s0)
   121b0:	bf35                	j	120ec <d_print_mod_list+0x4a>

000121b2 <d_print_array_type>:
   121b2:	1101                	addi	sp,sp,-32
   121b4:	cc22                	sw	s0,24(sp)
   121b6:	c64e                	sw	s3,12(sp)
   121b8:	ce06                	sw	ra,28(sp)
   121ba:	ca26                	sw	s1,20(sp)
   121bc:	c84a                	sw	s2,16(sp)
   121be:	c452                	sw	s4,8(sp)
   121c0:	842a                	mv	s0,a0
   121c2:	89b2                	mv	s3,a2
   121c4:	ee95                	bnez	a3,12200 <d_print_array_type+0x4e>
   121c6:	02000593          	li	a1,32
   121ca:	8522                	mv	a0,s0
   121cc:	b0dfe0ef          	jal	ra,10cd8 <d_append_char>
   121d0:	05b00593          	li	a1,91
   121d4:	8522                	mv	a0,s0
   121d6:	b03fe0ef          	jal	ra,10cd8 <d_append_char>
   121da:	00c9a603          	lw	a2,12(s3)
   121de:	c609                	beqz	a2,121e8 <d_print_array_type+0x36>
   121e0:	45c5                	li	a1,17
   121e2:	8522                	mv	a0,s0
   121e4:	ebbfe0ef          	jal	ra,1109e <d_print_comp>
   121e8:	8522                	mv	a0,s0
   121ea:	4462                	lw	s0,24(sp)
   121ec:	40f2                	lw	ra,28(sp)
   121ee:	44d2                	lw	s1,20(sp)
   121f0:	4942                	lw	s2,16(sp)
   121f2:	49b2                	lw	s3,12(sp)
   121f4:	4a22                	lw	s4,8(sp)
   121f6:	05d00593          	li	a1,93
   121fa:	6105                	addi	sp,sp,32
   121fc:	addfe06f          	j	10cd8 <d_append_char>
   12200:	84b6                	mv	s1,a3
   12202:	87b6                	mv	a5,a3
   12204:	0087a903          	lw	s2,8(a5)
   12208:	02091263          	bnez	s2,1222c <d_print_array_type+0x7a>
   1220c:	43dc                	lw	a5,4(a5)
   1220e:	4a01                	li	s4,0
   12210:	4398                	lw	a4,0(a5)
   12212:	02a00793          	li	a5,42
   12216:	00f70f63          	beq	a4,a5,12234 <d_print_array_type+0x82>
   1221a:	000255b7          	lui	a1,0x25
   1221e:	e2058593          	addi	a1,a1,-480 # 24e20 <cplus_demangle_operators+0x6ac>
   12222:	8522                	mv	a0,s0
   12224:	b39fe0ef          	jal	ra,10d5c <d_append_string>
   12228:	4a05                	li	s4,1
   1222a:	a021                	j	12232 <d_print_array_type+0x80>
   1222c:	439c                	lw	a5,0(a5)
   1222e:	fbf9                	bnez	a5,12204 <d_print_array_type+0x52>
   12230:	4a01                	li	s4,0
   12232:	4905                	li	s2,1
   12234:	4681                	li	a3,0
   12236:	8626                	mv	a2,s1
   12238:	45c5                	li	a1,17
   1223a:	8522                	mv	a0,s0
   1223c:	359d                	jal	120a2 <d_print_mod_list>
   1223e:	000a0763          	beqz	s4,1224c <d_print_array_type+0x9a>
   12242:	02900593          	li	a1,41
   12246:	8522                	mv	a0,s0
   12248:	a91fe0ef          	jal	ra,10cd8 <d_append_char>
   1224c:	f6091de3          	bnez	s2,121c6 <d_print_array_type+0x14>
   12250:	b741                	j	121d0 <d_print_array_type+0x1e>

00012252 <d_print_expr_op>:
   12252:	4214                	lw	a3,0(a2)
   12254:	03200713          	li	a4,50
   12258:	00e69763          	bne	a3,a4,12266 <d_print_expr_op+0x14>
   1225c:	465c                	lw	a5,12(a2)
   1225e:	4790                	lw	a2,8(a5)
   12260:	43cc                	lw	a1,4(a5)
   12262:	ab1fe06f          	j	10d12 <d_append_buffer>
   12266:	45c5                	li	a1,17
   12268:	e37fe06f          	j	1109e <d_print_comp>

0001226c <d_print_subexpr>:
   1226c:	421c                	lw	a5,0(a2)
   1226e:	1101                	addi	sp,sp,-32
   12270:	cc22                	sw	s0,24(sp)
   12272:	ca26                	sw	s1,20(sp)
   12274:	ce06                	sw	ra,28(sp)
   12276:	4485                	li	s1,1
   12278:	842a                	mv	s0,a0
   1227a:	02f4f063          	bgeu	s1,a5,1229a <d_print_subexpr+0x2e>
   1227e:	03100713          	li	a4,49
   12282:	00e78c63          	beq	a5,a4,1229a <d_print_subexpr+0x2e>
   12286:	4719                	li	a4,6
   12288:	00e78963          	beq	a5,a4,1229a <d_print_subexpr+0x2e>
   1228c:	02800593          	li	a1,40
   12290:	c632                	sw	a2,12(sp)
   12292:	a47fe0ef          	jal	ra,10cd8 <d_append_char>
   12296:	4632                	lw	a2,12(sp)
   12298:	4481                	li	s1,0
   1229a:	45c5                	li	a1,17
   1229c:	8522                	mv	a0,s0
   1229e:	e01fe0ef          	jal	ra,1109e <d_print_comp>
   122a2:	e891                	bnez	s1,122b6 <d_print_subexpr+0x4a>
   122a4:	8522                	mv	a0,s0
   122a6:	4462                	lw	s0,24(sp)
   122a8:	40f2                	lw	ra,28(sp)
   122aa:	44d2                	lw	s1,20(sp)
   122ac:	02900593          	li	a1,41
   122b0:	6105                	addi	sp,sp,32
   122b2:	a27fe06f          	j	10cd8 <d_append_char>
   122b6:	40f2                	lw	ra,28(sp)
   122b8:	4462                	lw	s0,24(sp)
   122ba:	44d2                	lw	s1,20(sp)
   122bc:	6105                	addi	sp,sp,32
   122be:	8082                	ret

000122c0 <d_maybe_print_fold_expression>:
   122c0:	465c                	lw	a5,12(a2)
   122c2:	06600713          	li	a4,102
   122c6:	47dc                	lw	a5,12(a5)
   122c8:	439c                	lw	a5,0(a5)
   122ca:	0007c683          	lbu	a3,0(a5)
   122ce:	0ee69f63          	bne	a3,a4,123cc <d_maybe_print_fold_expression+0x10c>
   122d2:	4a18                	lw	a4,16(a2)
   122d4:	1101                	addi	sp,sp,-32
   122d6:	ca26                	sw	s1,20(sp)
   122d8:	4b04                	lw	s1,16(a4)
   122da:	cc22                	sw	s0,24(sp)
   122dc:	c84a                	sw	s2,16(sp)
   122de:	4094                	lw	a3,0(s1)
   122e0:	00c72903          	lw	s2,12(a4)
   122e4:	c64e                	sw	s3,12(sp)
   122e6:	ce06                	sw	ra,28(sp)
   122e8:	c452                	sw	s4,8(sp)
   122ea:	03c00713          	li	a4,60
   122ee:	842a                	mv	s0,a0
   122f0:	4981                	li	s3,0
   122f2:	00e69563          	bne	a3,a4,122fc <d_maybe_print_fold_expression+0x3c>
   122f6:	0104a983          	lw	s3,16(s1)
   122fa:	44c4                	lw	s1,12(s1)
   122fc:	577d                	li	a4,-1
   122fe:	12442a03          	lw	s4,292(s0)
   12302:	12e42223          	sw	a4,292(s0)
   12306:	0017c783          	lbu	a5,1(a5)
   1230a:	06c00713          	li	a4,108
   1230e:	06e78063          	beq	a5,a4,1236e <d_maybe_print_fold_expression+0xae>
   12312:	02f76563          	bltu	a4,a5,1233c <d_maybe_print_fold_expression+0x7c>
   12316:	04c00713          	li	a4,76
   1231a:	06e78f63          	beq	a5,a4,12398 <d_maybe_print_fold_expression+0xd8>
   1231e:	05200713          	li	a4,82
   12322:	06e78b63          	beq	a5,a4,12398 <d_maybe_print_fold_expression+0xd8>
   12326:	13442223          	sw	s4,292(s0)
   1232a:	40f2                	lw	ra,28(sp)
   1232c:	4462                	lw	s0,24(sp)
   1232e:	44d2                	lw	s1,20(sp)
   12330:	4942                	lw	s2,16(sp)
   12332:	49b2                	lw	s3,12(sp)
   12334:	4a22                	lw	s4,8(sp)
   12336:	4505                	li	a0,1
   12338:	6105                	addi	sp,sp,32
   1233a:	8082                	ret
   1233c:	07200713          	li	a4,114
   12340:	fee793e3          	bne	a5,a4,12326 <d_maybe_print_fold_expression+0x66>
   12344:	8522                	mv	a0,s0
   12346:	02800593          	li	a1,40
   1234a:	98ffe0ef          	jal	ra,10cd8 <d_append_char>
   1234e:	8626                	mv	a2,s1
   12350:	8522                	mv	a0,s0
   12352:	45c5                	li	a1,17
   12354:	3f21                	jal	1226c <d_print_subexpr>
   12356:	8522                	mv	a0,s0
   12358:	864a                	mv	a2,s2
   1235a:	45c5                	li	a1,17
   1235c:	3ddd                	jal	12252 <d_print_expr_op>
   1235e:	000255b7          	lui	a1,0x25
   12362:	f2058593          	addi	a1,a1,-224 # 24f20 <cplus_demangle_operators+0x7ac>
   12366:	8522                	mv	a0,s0
   12368:	9f5fe0ef          	jal	ra,10d5c <d_append_string>
   1236c:	bf6d                	j	12326 <d_maybe_print_fold_expression+0x66>
   1236e:	000255b7          	lui	a1,0x25
   12372:	f1858593          	addi	a1,a1,-232 # 24f18 <cplus_demangle_operators+0x7a4>
   12376:	8522                	mv	a0,s0
   12378:	9e5fe0ef          	jal	ra,10d5c <d_append_string>
   1237c:	864a                	mv	a2,s2
   1237e:	45c5                	li	a1,17
   12380:	8522                	mv	a0,s0
   12382:	3dc1                	jal	12252 <d_print_expr_op>
   12384:	8626                	mv	a2,s1
   12386:	8522                	mv	a0,s0
   12388:	45c5                	li	a1,17
   1238a:	35cd                	jal	1226c <d_print_subexpr>
   1238c:	02900593          	li	a1,41
   12390:	8522                	mv	a0,s0
   12392:	947fe0ef          	jal	ra,10cd8 <d_append_char>
   12396:	bf41                	j	12326 <d_maybe_print_fold_expression+0x66>
   12398:	02800593          	li	a1,40
   1239c:	8522                	mv	a0,s0
   1239e:	93bfe0ef          	jal	ra,10cd8 <d_append_char>
   123a2:	8626                	mv	a2,s1
   123a4:	45c5                	li	a1,17
   123a6:	8522                	mv	a0,s0
   123a8:	35d1                	jal	1226c <d_print_subexpr>
   123aa:	864a                	mv	a2,s2
   123ac:	45c5                	li	a1,17
   123ae:	8522                	mv	a0,s0
   123b0:	354d                	jal	12252 <d_print_expr_op>
   123b2:	000255b7          	lui	a1,0x25
   123b6:	e2458593          	addi	a1,a1,-476 # 24e24 <cplus_demangle_operators+0x6b0>
   123ba:	8522                	mv	a0,s0
   123bc:	9a1fe0ef          	jal	ra,10d5c <d_append_string>
   123c0:	864a                	mv	a2,s2
   123c2:	45c5                	li	a1,17
   123c4:	8522                	mv	a0,s0
   123c6:	3571                	jal	12252 <d_print_expr_op>
   123c8:	864e                	mv	a2,s3
   123ca:	bf75                	j	12386 <d_maybe_print_fold_expression+0xc6>
   123cc:	4501                	li	a0,0
   123ce:	8082                	ret

000123d0 <next_is_type_qual.isra.0>:
   123d0:	00054703          	lbu	a4,0(a0)
   123d4:	07200693          	li	a3,114
   123d8:	87aa                	mv	a5,a0
   123da:	02d70e63          	beq	a4,a3,12416 <next_is_type_qual.isra.0+0x46>
   123de:	05600693          	li	a3,86
   123e2:	4505                	li	a0,1
   123e4:	02d70a63          	beq	a4,a3,12418 <next_is_type_qual.isra.0+0x48>
   123e8:	04b00693          	li	a3,75
   123ec:	02d70663          	beq	a4,a3,12418 <next_is_type_qual.isra.0+0x48>
   123f0:	04400693          	li	a3,68
   123f4:	4501                	li	a0,0
   123f6:	02d71163          	bne	a4,a3,12418 <next_is_type_qual.isra.0+0x48>
   123fa:	0017c783          	lbu	a5,1(a5)
   123fe:	04f00713          	li	a4,79
   12402:	4505                	li	a0,1
   12404:	0df7f693          	andi	a3,a5,223
   12408:	00e68863          	beq	a3,a4,12418 <next_is_type_qual.isra.0+0x48>
   1240c:	f8978513          	addi	a0,a5,-119
   12410:	00253513          	sltiu	a0,a0,2
   12414:	8082                	ret
   12416:	4505                	li	a0,1
   12418:	8082                	ret

0001241a <d_substitution>:
   1241a:	455c                	lw	a5,12(a0)
   1241c:	05300713          	li	a4,83
   12420:	0007c683          	lbu	a3,0(a5)
   12424:	18e69263          	bne	a3,a4,125a8 <d_substitution+0x18e>
   12428:	7179                	addi	sp,sp,-48
   1242a:	d422                	sw	s0,40(sp)
   1242c:	d606                	sw	ra,44(sp)
   1242e:	d226                	sw	s1,36(sp)
   12430:	d04a                	sw	s2,32(sp)
   12432:	ce4e                	sw	s3,28(sp)
   12434:	cc52                	sw	s4,24(sp)
   12436:	00178713          	addi	a4,a5,1
   1243a:	c558                	sw	a4,12(a0)
   1243c:	0017c703          	lbu	a4,1(a5)
   12440:	842a                	mv	s0,a0
   12442:	cb0d                	beqz	a4,12474 <d_substitution+0x5a>
   12444:	00278713          	addi	a4,a5,2
   12448:	c558                	sw	a4,12(a0)
   1244a:	0017c703          	lbu	a4,1(a5)
   1244e:	05f00793          	li	a5,95
   12452:	14f70163          	beq	a4,a5,12594 <d_substitution+0x17a>
   12456:	fd070793          	addi	a5,a4,-48
   1245a:	0ff7f793          	zext.b	a5,a5
   1245e:	4625                	li	a2,9
   12460:	4681                	li	a3,0
   12462:	10f67663          	bgeu	a2,a5,1256e <d_substitution+0x154>
   12466:	fbf70793          	addi	a5,a4,-65
   1246a:	0ff7f793          	zext.b	a5,a5
   1246e:	4665                	li	a2,25
   12470:	0ef67f63          	bgeu	a2,a5,1256e <d_substitution+0x154>
   12474:	441c                	lw	a5,8(s0)
   12476:	8ba1                	andi	a5,a5,8
   12478:	00f03933          	snez	s2,a5
   1247c:	ef89                	bnez	a5,12496 <d_substitution+0x7c>
   1247e:	cd81                	beqz	a1,12496 <d_substitution+0x7c>
   12480:	445c                	lw	a5,12(s0)
   12482:	4685                	li	a3,1
   12484:	0007c783          	lbu	a5,0(a5)
   12488:	fbd78793          	addi	a5,a5,-67
   1248c:	0ff7f793          	zext.b	a5,a5
   12490:	00f6e363          	bltu	a3,a5,12496 <d_substitution+0x7c>
   12494:	892e                	mv	s2,a1
   12496:	000247b7          	lui	a5,0x24
   1249a:	40878793          	addi	a5,a5,1032 # 24408 <cplus_demangle_builtin_types>
   1249e:	2a878493          	addi	s1,a5,680
   124a2:	36c78793          	addi	a5,a5,876
   124a6:	0004c683          	lbu	a3,0(s1)
   124aa:	0ee69b63          	bne	a3,a4,125a0 <d_substitution+0x186>
   124ae:	0144a983          	lw	s3,20(s1)
   124b2:	00098f63          	beqz	s3,124d0 <d_substitution+0xb6>
   124b6:	8522                	mv	a0,s0
   124b8:	0184aa03          	lw	s4,24(s1)
   124bc:	cb6fe0ef          	jal	ra,10972 <d_make_empty>
   124c0:	c519                	beqz	a0,124ce <d_substitution+0xb4>
   124c2:	47e1                	li	a5,24
   124c4:	c11c                	sw	a5,0(a0)
   124c6:	01352623          	sw	s3,12(a0)
   124ca:	01452823          	sw	s4,16(a0)
   124ce:	d408                	sw	a0,40(s0)
   124d0:	0c090463          	beqz	s2,12598 <d_substitution+0x17e>
   124d4:	00c4a903          	lw	s2,12(s1)
   124d8:	4884                	lw	s1,16(s1)
   124da:	545c                	lw	a5,44(s0)
   124dc:	8522                	mv	a0,s0
   124de:	97a6                	add	a5,a5,s1
   124e0:	d45c                	sw	a5,44(s0)
   124e2:	c90fe0ef          	jal	ra,10972 <d_make_empty>
   124e6:	85aa                	mv	a1,a0
   124e8:	c511                	beqz	a0,124f4 <d_substitution+0xda>
   124ea:	47e1                	li	a5,24
   124ec:	c11c                	sw	a5,0(a0)
   124ee:	01252623          	sw	s2,12(a0)
   124f2:	c904                	sw	s1,16(a0)
   124f4:	445c                	lw	a5,12(s0)
   124f6:	0007c703          	lbu	a4,0(a5)
   124fa:	04200793          	li	a5,66
   124fe:	04f71f63          	bne	a4,a5,1255c <d_substitution+0x142>
   12502:	8522                	mv	a0,s0
   12504:	927fe0ef          	jal	ra,10e2a <d_abi_tags>
   12508:	85aa                	mv	a1,a0
   1250a:	c62a                	sw	a0,12(sp)
   1250c:	8522                	mv	a0,s0
   1250e:	ee4fe0ef          	jal	ra,10bf2 <d_add_substitution>
   12512:	45b2                	lw	a1,12(sp)
   12514:	e521                	bnez	a0,1255c <d_substitution+0x142>
   12516:	4581                	li	a1,0
   12518:	a091                	j	1255c <d_substitution+0x142>
   1251a:	86be                	mv	a3,a5
   1251c:	fd070793          	addi	a5,a4,-48
   12520:	0ff7f793          	zext.b	a5,a5
   12524:	04f56c63          	bltu	a0,a5,1257c <d_substitution+0x162>
   12528:	02c687b3          	mul	a5,a3,a2
   1252c:	97ba                	add	a5,a5,a4
   1252e:	fd078793          	addi	a5,a5,-48
   12532:	fed7e2e3          	bltu	a5,a3,12516 <d_substitution+0xfc>
   12536:	4454                	lw	a3,12(s0)
   12538:	0006c703          	lbu	a4,0(a3)
   1253c:	df79                	beqz	a4,1251a <d_substitution+0x100>
   1253e:	00168713          	addi	a4,a3,1
   12542:	c458                	sw	a4,12(s0)
   12544:	0006c703          	lbu	a4,0(a3)
   12548:	fcb719e3          	bne	a4,a1,1251a <d_substitution+0x100>
   1254c:	0785                	addi	a5,a5,1
   1254e:	5018                	lw	a4,32(s0)
   12550:	fce7f3e3          	bgeu	a5,a4,12516 <d_substitution+0xfc>
   12554:	4c58                	lw	a4,28(s0)
   12556:	078a                	slli	a5,a5,0x2
   12558:	97ba                	add	a5,a5,a4
   1255a:	438c                	lw	a1,0(a5)
   1255c:	50b2                	lw	ra,44(sp)
   1255e:	5422                	lw	s0,40(sp)
   12560:	5492                	lw	s1,36(sp)
   12562:	5902                	lw	s2,32(sp)
   12564:	49f2                	lw	s3,28(sp)
   12566:	4a62                	lw	s4,24(sp)
   12568:	852e                	mv	a0,a1
   1256a:	6145                	addi	sp,sp,48
   1256c:	8082                	ret
   1256e:	4525                	li	a0,9
   12570:	4865                	li	a6,25
   12572:	02400613          	li	a2,36
   12576:	05f00593          	li	a1,95
   1257a:	b74d                	j	1251c <d_substitution+0x102>
   1257c:	fbf70793          	addi	a5,a4,-65
   12580:	0ff7f793          	zext.b	a5,a5
   12584:	f8f869e3          	bltu	a6,a5,12516 <d_substitution+0xfc>
   12588:	02c687b3          	mul	a5,a3,a2
   1258c:	97ba                	add	a5,a5,a4
   1258e:	fc978793          	addi	a5,a5,-55
   12592:	b745                	j	12532 <d_substitution+0x118>
   12594:	4781                	li	a5,0
   12596:	bf65                	j	1254e <d_substitution+0x134>
   12598:	0044a903          	lw	s2,4(s1)
   1259c:	4484                	lw	s1,8(s1)
   1259e:	bf35                	j	124da <d_substitution+0xc0>
   125a0:	04f1                	addi	s1,s1,28
   125a2:	f0f492e3          	bne	s1,a5,124a6 <d_substitution+0x8c>
   125a6:	bf85                	j	12516 <d_substitution+0xfc>
   125a8:	4581                	li	a1,0
   125aa:	852e                	mv	a0,a1
   125ac:	8082                	ret

000125ae <d_expr_primary>:
   125ae:	455c                	lw	a5,12(a0)
   125b0:	1101                	addi	sp,sp,-32
   125b2:	ce06                	sw	ra,28(sp)
   125b4:	cc22                	sw	s0,24(sp)
   125b6:	ca26                	sw	s1,20(sp)
   125b8:	c84a                	sw	s2,16(sp)
   125ba:	c64e                	sw	s3,12(sp)
   125bc:	0007c683          	lbu	a3,0(a5)
   125c0:	04c00713          	li	a4,76
   125c4:	00e68b63          	beq	a3,a4,125da <d_expr_primary+0x2c>
   125c8:	4481                	li	s1,0
   125ca:	40f2                	lw	ra,28(sp)
   125cc:	4462                	lw	s0,24(sp)
   125ce:	4942                	lw	s2,16(sp)
   125d0:	49b2                	lw	s3,12(sp)
   125d2:	8526                	mv	a0,s1
   125d4:	44d2                	lw	s1,20(sp)
   125d6:	6105                	addi	sp,sp,32
   125d8:	8082                	ret
   125da:	00178713          	addi	a4,a5,1
   125de:	c558                	sw	a4,12(a0)
   125e0:	0017c703          	lbu	a4,1(a5)
   125e4:	05f00693          	li	a3,95
   125e8:	842a                	mv	s0,a0
   125ea:	06d70f63          	beq	a4,a3,12668 <d_expr_primary+0xba>
   125ee:	05a00793          	li	a5,90
   125f2:	06f70d63          	beq	a4,a5,1266c <d_expr_primary+0xbe>
   125f6:	2b59                	jal	12b8c <d_type>
   125f8:	84aa                	mv	s1,a0
   125fa:	d579                	beqz	a0,125c8 <d_expr_primary+0x1a>
   125fc:	4118                	lw	a4,0(a0)
   125fe:	02700793          	li	a5,39
   12602:	00c42903          	lw	s2,12(s0)
   12606:	02f71163          	bne	a4,a5,12628 <d_expr_primary+0x7a>
   1260a:	455c                	lw	a5,12(a0)
   1260c:	4b98                	lw	a4,16(a5)
   1260e:	c709                	beqz	a4,12618 <d_expr_primary+0x6a>
   12610:	5458                	lw	a4,44(s0)
   12612:	43d4                	lw	a3,4(a5)
   12614:	8f15                	sub	a4,a4,a3
   12616:	d458                	sw	a4,44(s0)
   12618:	4388                	lw	a0,0(a5)
   1261a:	000255b7          	lui	a1,0x25
   1261e:	f2858593          	addi	a1,a1,-216 # 24f28 <cplus_demangle_operators+0x7b4>
   12622:	416060ef          	jal	ra,18a38 <strcmp>
   12626:	cd25                	beqz	a0,1269e <d_expr_primary+0xf0>
   12628:	00094703          	lbu	a4,0(s2)
   1262c:	06e00793          	li	a5,110
   12630:	03d00993          	li	s3,61
   12634:	00f71763          	bne	a4,a5,12642 <d_expr_primary+0x94>
   12638:	0905                	addi	s2,s2,1
   1263a:	01242623          	sw	s2,12(s0)
   1263e:	03e00993          	li	s3,62
   12642:	444c                	lw	a1,12(s0)
   12644:	04500713          	li	a4,69
   12648:	4450                	lw	a2,12(s0)
   1264a:	00064783          	lbu	a5,0(a2)
   1264e:	06e79263          	bne	a5,a4,126b2 <d_expr_primary+0x104>
   12652:	8e0d                	sub	a2,a2,a1
   12654:	8522                	mv	a0,s0
   12656:	b96fe0ef          	jal	ra,109ec <d_make_name>
   1265a:	86aa                	mv	a3,a0
   1265c:	8626                	mv	a2,s1
   1265e:	85ce                	mv	a1,s3
   12660:	8522                	mv	a0,s0
   12662:	b36fe0ef          	jal	ra,10998 <d_make_comp>
   12666:	a00d                	j	12688 <d_expr_primary+0xda>
   12668:	0789                	addi	a5,a5,2
   1266a:	c55c                	sw	a5,12(a0)
   1266c:	445c                	lw	a5,12(s0)
   1266e:	05a00713          	li	a4,90
   12672:	4481                	li	s1,0
   12674:	0007c683          	lbu	a3,0(a5)
   12678:	00e69963          	bne	a3,a4,1268a <d_expr_primary+0xdc>
   1267c:	0785                	addi	a5,a5,1
   1267e:	c45c                	sw	a5,12(s0)
   12680:	4581                	li	a1,0
   12682:	8522                	mv	a0,s0
   12684:	496010ef          	jal	ra,13b1a <d_encoding>
   12688:	84aa                	mv	s1,a0
   1268a:	445c                	lw	a5,12(s0)
   1268c:	04500713          	li	a4,69
   12690:	0007c683          	lbu	a3,0(a5)
   12694:	f2e69ae3          	bne	a3,a4,125c8 <d_expr_primary+0x1a>
   12698:	0785                	addi	a5,a5,1
   1269a:	c45c                	sw	a5,12(s0)
   1269c:	b73d                	j	125ca <d_expr_primary+0x1c>
   1269e:	00094703          	lbu	a4,0(s2)
   126a2:	04500793          	li	a5,69
   126a6:	f8f711e3          	bne	a4,a5,12628 <d_expr_primary+0x7a>
   126aa:	0905                	addi	s2,s2,1
   126ac:	01242623          	sw	s2,12(s0)
   126b0:	bf29                	j	125ca <d_expr_primary+0x1c>
   126b2:	db99                	beqz	a5,125c8 <d_expr_primary+0x1a>
   126b4:	0605                	addi	a2,a2,1
   126b6:	c450                	sw	a2,12(s0)
   126b8:	bf41                	j	12648 <d_expr_primary+0x9a>

000126ba <d_expression_1>:
   126ba:	455c                	lw	a5,12(a0)
   126bc:	04c00693          	li	a3,76
   126c0:	0007c703          	lbu	a4,0(a5)
   126c4:	00d71363          	bne	a4,a3,126ca <d_expression_1+0x10>
   126c8:	b5dd                	j	125ae <d_expr_primary>
   126ca:	05400693          	li	a3,84
   126ce:	00d71463          	bne	a4,a3,126d6 <d_expression_1+0x1c>
   126d2:	ce0fe06f          	j	10bb2 <d_template_param>
   126d6:	7179                	addi	sp,sp,-48
   126d8:	d422                	sw	s0,40(sp)
   126da:	d606                	sw	ra,44(sp)
   126dc:	d226                	sw	s1,36(sp)
   126de:	d04a                	sw	s2,32(sp)
   126e0:	ce4e                	sw	s3,28(sp)
   126e2:	cc52                	sw	s4,24(sp)
   126e4:	07300613          	li	a2,115
   126e8:	842a                	mv	s0,a0
   126ea:	06c71a63          	bne	a4,a2,1275e <d_expression_1+0xa4>
   126ee:	0017c703          	lbu	a4,1(a5)
   126f2:	07200693          	li	a3,114
   126f6:	04d71863          	bne	a4,a3,12746 <d_expression_1+0x8c>
   126fa:	0789                	addi	a5,a5,2
   126fc:	c55c                	sw	a5,12(a0)
   126fe:	2179                	jal	12b8c <d_type>
   12700:	84aa                	mv	s1,a0
   12702:	8522                	mv	a0,s0
   12704:	67b000ef          	jal	ra,1357e <d_unqualified_name>
   12708:	445c                	lw	a5,12(s0)
   1270a:	86aa                	mv	a3,a0
   1270c:	0007c703          	lbu	a4,0(a5)
   12710:	04900793          	li	a5,73
   12714:	00f71d63          	bne	a4,a5,1272e <d_expression_1+0x74>
   12718:	c62a                	sw	a0,12(sp)
   1271a:	8522                	mv	a0,s0
   1271c:	20d000ef          	jal	ra,13128 <d_template_args>
   12720:	4632                	lw	a2,12(sp)
   12722:	86aa                	mv	a3,a0
   12724:	4591                	li	a1,4
   12726:	8522                	mv	a0,s0
   12728:	a70fe0ef          	jal	ra,10998 <d_make_comp>
   1272c:	86aa                	mv	a3,a0
   1272e:	8626                	mv	a2,s1
   12730:	4585                	li	a1,1
   12732:	8522                	mv	a0,s0
   12734:	5422                	lw	s0,40(sp)
   12736:	50b2                	lw	ra,44(sp)
   12738:	5492                	lw	s1,36(sp)
   1273a:	5902                	lw	s2,32(sp)
   1273c:	49f2                	lw	s3,28(sp)
   1273e:	4a62                	lw	s4,24(sp)
   12740:	6145                	addi	sp,sp,48
   12742:	a56fe06f          	j	10998 <d_make_comp>
   12746:	07000693          	li	a3,112
   1274a:	10d71a63          	bne	a4,a3,1285e <d_expression_1+0x1a4>
   1274e:	0789                	addi	a5,a5,2
   12750:	c55c                	sw	a5,12(a0)
   12752:	37a5                	jal	126ba <d_expression_1>
   12754:	862a                	mv	a2,a0
   12756:	4681                	li	a3,0
   12758:	04b00593          	li	a1,75
   1275c:	bfd9                	j	12732 <d_expression_1+0x78>
   1275e:	06600613          	li	a2,102
   12762:	04c71e63          	bne	a4,a2,127be <d_expression_1+0x104>
   12766:	0017c603          	lbu	a2,1(a5)
   1276a:	07000713          	li	a4,112
   1276e:	0ee61863          	bne	a2,a4,1285e <d_expression_1+0x1a4>
   12772:	00278713          	addi	a4,a5,2
   12776:	c558                	sw	a4,12(a0)
   12778:	0027c703          	lbu	a4,2(a5)
   1277c:	02d71663          	bne	a4,a3,127a8 <d_expression_1+0xee>
   12780:	078d                	addi	a5,a5,3
   12782:	c55c                	sw	a5,12(a0)
   12784:	4481                	li	s1,0
   12786:	8522                	mv	a0,s0
   12788:	9eafe0ef          	jal	ra,10972 <d_make_empty>
   1278c:	862a                	mv	a2,a0
   1278e:	c501                	beqz	a0,12796 <d_expression_1+0xdc>
   12790:	4799                	li	a5,6
   12792:	c11c                	sw	a5,0(a0)
   12794:	c544                	sw	s1,12(a0)
   12796:	50b2                	lw	ra,44(sp)
   12798:	5422                	lw	s0,40(sp)
   1279a:	5492                	lw	s1,36(sp)
   1279c:	5902                	lw	s2,32(sp)
   1279e:	49f2                	lw	s3,28(sp)
   127a0:	4a62                	lw	s4,24(sp)
   127a2:	8532                	mv	a0,a2
   127a4:	6145                	addi	sp,sp,48
   127a6:	8082                	ret
   127a8:	bc2fe0ef          	jal	ra,10b6a <d_compact_number>
   127ac:	fff54793          	not	a5,a0
   127b0:	00179713          	slli	a4,a5,0x1
   127b4:	00150493          	addi	s1,a0,1
   127b8:	f779                	bnez	a4,12786 <d_expression_1+0xcc>
   127ba:	4601                	li	a2,0
   127bc:	bfe9                	j	12796 <d_expression_1+0xdc>
   127be:	fd070693          	addi	a3,a4,-48
   127c2:	0ff6f693          	zext.b	a3,a3
   127c6:	4625                	li	a2,9
   127c8:	00d67e63          	bgeu	a2,a3,127e4 <d_expression_1+0x12a>
   127cc:	06f00693          	li	a3,111
   127d0:	02d71e63          	bne	a4,a3,1280c <d_expression_1+0x152>
   127d4:	0017c683          	lbu	a3,1(a5)
   127d8:	06e00713          	li	a4,110
   127dc:	08e69163          	bne	a3,a4,1285e <d_expression_1+0x1a4>
   127e0:	0789                	addi	a5,a5,2
   127e2:	c55c                	sw	a5,12(a0)
   127e4:	8522                	mv	a0,s0
   127e6:	599000ef          	jal	ra,1357e <d_unqualified_name>
   127ea:	862a                	mv	a2,a0
   127ec:	d579                	beqz	a0,127ba <d_expression_1+0x100>
   127ee:	445c                	lw	a5,12(s0)
   127f0:	0007c703          	lbu	a4,0(a5)
   127f4:	04900793          	li	a5,73
   127f8:	f8f71fe3          	bne	a4,a5,12796 <d_expression_1+0xdc>
   127fc:	c62a                	sw	a0,12(sp)
   127fe:	8522                	mv	a0,s0
   12800:	129000ef          	jal	ra,13128 <d_template_args>
   12804:	4632                	lw	a2,12(sp)
   12806:	86aa                	mv	a3,a0
   12808:	4591                	li	a1,4
   1280a:	b725                	j	12732 <d_expression_1+0x78>
   1280c:	06900693          	li	a3,105
   12810:	00d70663          	beq	a4,a3,1281c <d_expression_1+0x162>
   12814:	07400693          	li	a3,116
   12818:	04d71363          	bne	a4,a3,1285e <d_expression_1+0x1a4>
   1281c:	0017c603          	lbu	a2,1(a5)
   12820:	06c00693          	li	a3,108
   12824:	02d61d63          	bne	a2,a3,1285e <d_expression_1+0x1a4>
   12828:	0789                	addi	a5,a5,2
   1282a:	c45c                	sw	a5,12(s0)
   1282c:	07400793          	li	a5,116
   12830:	4601                	li	a2,0
   12832:	00f71563          	bne	a4,a5,1283c <d_expression_1+0x182>
   12836:	8522                	mv	a0,s0
   12838:	2e91                	jal	12b8c <d_type>
   1283a:	862a                	mv	a2,a0
   1283c:	445c                	lw	a5,12(s0)
   1283e:	c632                	sw	a2,12(sp)
   12840:	0007c703          	lbu	a4,0(a5)
   12844:	db3d                	beqz	a4,127ba <d_expression_1+0x100>
   12846:	0017c783          	lbu	a5,1(a5)
   1284a:	dba5                	beqz	a5,127ba <d_expression_1+0x100>
   1284c:	04500593          	li	a1,69
   12850:	8522                	mv	a0,s0
   12852:	24d1                	jal	12b16 <d_exprlist>
   12854:	4632                	lw	a2,12(sp)
   12856:	86aa                	mv	a3,a0
   12858:	03100593          	li	a1,49
   1285c:	bdd9                	j	12732 <d_expression_1+0x78>
   1285e:	8522                	mv	a0,s0
   12860:	0e7000ef          	jal	ra,13146 <d_operator_name>
   12864:	892a                	mv	s2,a0
   12866:	d931                	beqz	a0,127ba <d_expression_1+0x100>
   12868:	411c                	lw	a5,0(a0)
   1286a:	03200713          	li	a4,50
   1286e:	02e79a63          	bne	a5,a4,128a2 <d_expression_1+0x1e8>
   12872:	4544                	lw	s1,12(a0)
   12874:	000255b7          	lui	a1,0x25
   12878:	15058593          	addi	a1,a1,336 # 25150 <cplus_demangle_operators+0x9dc>
   1287c:	449c                	lw	a5,8(s1)
   1287e:	0004a983          	lw	s3,0(s1)
   12882:	ffe78713          	addi	a4,a5,-2
   12886:	545c                	lw	a5,44(s0)
   12888:	854e                	mv	a0,s3
   1288a:	97ba                	add	a5,a5,a4
   1288c:	d45c                	sw	a5,44(s0)
   1288e:	1aa060ef          	jal	ra,18a38 <strcmp>
   12892:	e121                	bnez	a0,128d2 <d_expression_1+0x218>
   12894:	8522                	mv	a0,s0
   12896:	2cdd                	jal	12b8c <d_type>
   12898:	86aa                	mv	a3,a0
   1289a:	864a                	mv	a2,s2
   1289c:	03700593          	li	a1,55
   128a0:	bd49                	j	12732 <d_expression_1+0x78>
   128a2:	03400713          	li	a4,52
   128a6:	0ee78c63          	beq	a5,a4,1299e <d_expression_1+0x2e4>
   128aa:	f0f768e3          	bltu	a4,a5,127ba <d_expression_1+0x100>
   128ae:	03300713          	li	a4,51
   128b2:	f0e794e3          	bne	a5,a4,127ba <d_expression_1+0x100>
   128b6:	455c                	lw	a5,12(a0)
   128b8:	4709                	li	a4,2
   128ba:	f0e780e3          	beq	a5,a4,127ba <d_expression_1+0x100>
   128be:	eef74ee3          	blt	a4,a5,127ba <d_expression_1+0x100>
   128c2:	c385                	beqz	a5,128e2 <d_expression_1+0x228>
   128c4:	4705                	li	a4,1
   128c6:	eee79ae3          	bne	a5,a4,127ba <d_expression_1+0x100>
   128ca:	4481                	li	s1,0
   128cc:	8522                	mv	a0,s0
   128ce:	33f5                	jal	126ba <d_expression_1>
   128d0:	a86d                	j	1298a <d_expression_1+0x2d0>
   128d2:	44c4                	lw	s1,12(s1)
   128d4:	4785                	li	a5,1
   128d6:	06f48763          	beq	s1,a5,12944 <d_expression_1+0x28a>
   128da:	0097c963          	blt	a5,s1,128ec <d_expression_1+0x232>
   128de:	ec049ee3          	bnez	s1,127ba <d_expression_1+0x100>
   128e2:	4681                	li	a3,0
   128e4:	864a                	mv	a2,s2
   128e6:	03600593          	li	a1,54
   128ea:	b5a1                	j	12732 <d_expression_1+0x78>
   128ec:	4789                	li	a5,2
   128ee:	0cf48763          	beq	s1,a5,129bc <d_expression_1+0x302>
   128f2:	478d                	li	a5,3
   128f4:	ecf493e3          	bne	s1,a5,127ba <d_expression_1+0x100>
   128f8:	000255b7          	lui	a1,0x25
   128fc:	ddc58593          	addi	a1,a1,-548 # 24ddc <cplus_demangle_operators+0x668>
   12900:	854e                	mv	a0,s3
   12902:	136060ef          	jal	ra,18a38 <strcmp>
   12906:	16051063          	bnez	a0,12a66 <d_expression_1+0x3ac>
   1290a:	8522                	mv	a0,s0
   1290c:	337d                	jal	126ba <d_expression_1>
   1290e:	84aa                	mv	s1,a0
   12910:	8522                	mv	a0,s0
   12912:	3365                	jal	126ba <d_expression_1>
   12914:	89aa                	mv	s3,a0
   12916:	8522                	mv	a0,s0
   12918:	334d                	jal	126ba <d_expression_1>
   1291a:	ea0500e3          	beqz	a0,127ba <d_expression_1+0x100>
   1291e:	86aa                	mv	a3,a0
   12920:	864e                	mv	a2,s3
   12922:	03c00593          	li	a1,60
   12926:	8522                	mv	a0,s0
   12928:	870fe0ef          	jal	ra,10998 <d_make_comp>
   1292c:	86aa                	mv	a3,a0
   1292e:	8626                	mv	a2,s1
   12930:	03b00593          	li	a1,59
   12934:	8522                	mv	a0,s0
   12936:	862fe0ef          	jal	ra,10998 <d_make_comp>
   1293a:	86aa                	mv	a3,a0
   1293c:	864a                	mv	a2,s2
   1293e:	03a00593          	li	a1,58
   12942:	bbc5                	j	12732 <d_expression_1+0x78>
   12944:	0009c783          	lbu	a5,0(s3)
   12948:	07000713          	li	a4,112
   1294c:	00e78663          	beq	a5,a4,12958 <d_expression_1+0x29e>
   12950:	06d00713          	li	a4,109
   12954:	00e79f63          	bne	a5,a4,12972 <d_expression_1+0x2b8>
   12958:	0019c703          	lbu	a4,1(s3)
   1295c:	00f71b63          	bne	a4,a5,12972 <d_expression_1+0x2b8>
   12960:	445c                	lw	a5,12(s0)
   12962:	05f00713          	li	a4,95
   12966:	0007c683          	lbu	a3,0(a5)
   1296a:	00e69563          	bne	a3,a4,12974 <d_expression_1+0x2ba>
   1296e:	0785                	addi	a5,a5,1
   12970:	c45c                	sw	a5,12(s0)
   12972:	4481                	li	s1,0
   12974:	000255b7          	lui	a1,0x25
   12978:	dc858593          	addi	a1,a1,-568 # 24dc8 <cplus_demangle_operators+0x654>
   1297c:	854e                	mv	a0,s3
   1297e:	0ba060ef          	jal	ra,18a38 <strcmp>
   12982:	f529                	bnez	a0,128cc <d_expression_1+0x212>
   12984:	8522                	mv	a0,s0
   12986:	71c000ef          	jal	ra,130a2 <d_template_args_1>
   1298a:	86aa                	mv	a3,a0
   1298c:	f00487e3          	beqz	s1,1289a <d_expression_1+0x1e0>
   12990:	862a                	mv	a2,a0
   12992:	03900593          	li	a1,57
   12996:	8522                	mv	a0,s0
   12998:	800fe0ef          	jal	ra,10998 <d_make_comp>
   1299c:	bdf5                	j	12898 <d_expression_1+0x1de>
   1299e:	445c                	lw	a5,12(s0)
   129a0:	05f00713          	li	a4,95
   129a4:	4481                	li	s1,0
   129a6:	0007c683          	lbu	a3,0(a5)
   129aa:	f2e691e3          	bne	a3,a4,128cc <d_expression_1+0x212>
   129ae:	0785                	addi	a5,a5,1
   129b0:	c45c                	sw	a5,12(s0)
   129b2:	04500593          	li	a1,69
   129b6:	8522                	mv	a0,s0
   129b8:	2ab9                	jal	12b16 <d_exprlist>
   129ba:	bdf9                	j	12898 <d_expression_1+0x1de>
   129bc:	00c92503          	lw	a0,12(s2)
   129c0:	eaefe0ef          	jal	ra,1106e <op_is_new_cast.isra.0>
   129c4:	cd0d                	beqz	a0,129fe <d_expression_1+0x344>
   129c6:	8522                	mv	a0,s0
   129c8:	22d1                	jal	12b8c <d_type>
   129ca:	000255b7          	lui	a1,0x25
   129ce:	8a2a                	mv	s4,a0
   129d0:	dd458593          	addi	a1,a1,-556 # 24dd4 <cplus_demangle_operators+0x660>
   129d4:	854e                	mv	a0,s3
   129d6:	062060ef          	jal	ra,18a38 <strcmp>
   129da:	ed15                	bnez	a0,12a16 <d_expression_1+0x35c>
   129dc:	04500593          	li	a1,69
   129e0:	8522                	mv	a0,s0
   129e2:	2a15                	jal	12b16 <d_exprlist>
   129e4:	84aa                	mv	s1,a0
   129e6:	86a6                	mv	a3,s1
   129e8:	8652                	mv	a2,s4
   129ea:	03900593          	li	a1,57
   129ee:	8522                	mv	a0,s0
   129f0:	fa9fd0ef          	jal	ra,10998 <d_make_comp>
   129f4:	86aa                	mv	a3,a0
   129f6:	864a                	mv	a2,s2
   129f8:	03800593          	li	a1,56
   129fc:	bb1d                	j	12732 <d_expression_1+0x78>
   129fe:	0009c703          	lbu	a4,0(s3)
   12a02:	06600793          	li	a5,102
   12a06:	8522                	mv	a0,s0
   12a08:	00f71563          	bne	a4,a5,12a12 <d_expression_1+0x358>
   12a0c:	73a000ef          	jal	ra,13146 <d_operator_name>
   12a10:	bf6d                	j	129ca <d_expression_1+0x310>
   12a12:	3165                	jal	126ba <d_expression_1>
   12a14:	bf5d                	j	129ca <d_expression_1+0x310>
   12a16:	000255b7          	lui	a1,0x25
   12a1a:	f3c58593          	addi	a1,a1,-196 # 24f3c <cplus_demangle_operators+0x7c8>
   12a1e:	854e                	mv	a0,s3
   12a20:	018060ef          	jal	ra,18a38 <strcmp>
   12a24:	c909                	beqz	a0,12a36 <d_expression_1+0x37c>
   12a26:	000255b7          	lui	a1,0x25
   12a2a:	f4058593          	addi	a1,a1,-192 # 24f40 <cplus_demangle_operators+0x7cc>
   12a2e:	854e                	mv	a0,s3
   12a30:	008060ef          	jal	ra,18a38 <strcmp>
   12a34:	e515                	bnez	a0,12a60 <d_expression_1+0x3a6>
   12a36:	8522                	mv	a0,s0
   12a38:	347000ef          	jal	ra,1357e <d_unqualified_name>
   12a3c:	445c                	lw	a5,12(s0)
   12a3e:	84aa                	mv	s1,a0
   12a40:	0007c703          	lbu	a4,0(a5)
   12a44:	04900793          	li	a5,73
   12a48:	f8f71fe3          	bne	a4,a5,129e6 <d_expression_1+0x32c>
   12a4c:	8522                	mv	a0,s0
   12a4e:	6da000ef          	jal	ra,13128 <d_template_args>
   12a52:	86aa                	mv	a3,a0
   12a54:	8626                	mv	a2,s1
   12a56:	4591                	li	a1,4
   12a58:	8522                	mv	a0,s0
   12a5a:	f3ffd0ef          	jal	ra,10998 <d_make_comp>
   12a5e:	b759                	j	129e4 <d_expression_1+0x32a>
   12a60:	8522                	mv	a0,s0
   12a62:	39a1                	jal	126ba <d_expression_1>
   12a64:	b741                	j	129e4 <d_expression_1+0x32a>
   12a66:	0009c783          	lbu	a5,0(s3)
   12a6a:	06600713          	li	a4,102
   12a6e:	00e79663          	bne	a5,a4,12a7a <d_expression_1+0x3c0>
   12a72:	8522                	mv	a0,s0
   12a74:	6d2000ef          	jal	ra,13146 <d_operator_name>
   12a78:	bd59                	j	1290e <d_expression_1+0x254>
   12a7a:	06e00713          	li	a4,110
   12a7e:	d2e79ee3          	bne	a5,a4,127ba <d_expression_1+0x100>
   12a82:	0019c783          	lbu	a5,1(s3)
   12a86:	07700713          	li	a4,119
   12a8a:	00e78663          	beq	a5,a4,12a96 <d_expression_1+0x3dc>
   12a8e:	06100713          	li	a4,97
   12a92:	d2e794e3          	bne	a5,a4,127ba <d_expression_1+0x100>
   12a96:	05f00593          	li	a1,95
   12a9a:	8522                	mv	a0,s0
   12a9c:	28ad                	jal	12b16 <d_exprlist>
   12a9e:	84aa                	mv	s1,a0
   12aa0:	8522                	mv	a0,s0
   12aa2:	20ed                	jal	12b8c <d_type>
   12aa4:	445c                	lw	a5,12(s0)
   12aa6:	04500693          	li	a3,69
   12aaa:	89aa                	mv	s3,a0
   12aac:	0007c703          	lbu	a4,0(a5)
   12ab0:	00d71663          	bne	a4,a3,12abc <d_expression_1+0x402>
   12ab4:	0785                	addi	a5,a5,1
   12ab6:	c45c                	sw	a5,12(s0)
   12ab8:	4501                	li	a0,0
   12aba:	b595                	j	1291e <d_expression_1+0x264>
   12abc:	07000693          	li	a3,112
   12ac0:	00d71f63          	bne	a4,a3,12ade <d_expression_1+0x424>
   12ac4:	0017c683          	lbu	a3,1(a5)
   12ac8:	06900713          	li	a4,105
   12acc:	cee697e3          	bne	a3,a4,127ba <d_expression_1+0x100>
   12ad0:	0789                	addi	a5,a5,2
   12ad2:	c45c                	sw	a5,12(s0)
   12ad4:	04500593          	li	a1,69
   12ad8:	8522                	mv	a0,s0
   12ada:	2835                	jal	12b16 <d_exprlist>
   12adc:	b589                	j	1291e <d_expression_1+0x264>
   12ade:	06900693          	li	a3,105
   12ae2:	ccd71ce3          	bne	a4,a3,127ba <d_expression_1+0x100>
   12ae6:	0017c703          	lbu	a4,1(a5)
   12aea:	06c00793          	li	a5,108
   12aee:	ccf716e3          	bne	a4,a5,127ba <d_expression_1+0x100>
   12af2:	8522                	mv	a0,s0
   12af4:	36d9                	jal	126ba <d_expression_1>
   12af6:	b525                	j	1291e <d_expression_1+0x264>

00012af8 <d_expression>:
   12af8:	1141                	addi	sp,sp,-16
   12afa:	c422                	sw	s0,8(sp)
   12afc:	c226                	sw	s1,4(sp)
   12afe:	c606                	sw	ra,12(sp)
   12b00:	5904                	lw	s1,48(a0)
   12b02:	4785                	li	a5,1
   12b04:	d91c                	sw	a5,48(a0)
   12b06:	842a                	mv	s0,a0
   12b08:	3e4d                	jal	126ba <d_expression_1>
   12b0a:	40b2                	lw	ra,12(sp)
   12b0c:	d804                	sw	s1,48(s0)
   12b0e:	4422                	lw	s0,8(sp)
   12b10:	4492                	lw	s1,4(sp)
   12b12:	0141                	addi	sp,sp,16
   12b14:	8082                	ret

00012b16 <d_exprlist>:
   12b16:	455c                	lw	a5,12(a0)
   12b18:	1101                	addi	sp,sp,-32
   12b1a:	cc22                	sw	s0,24(sp)
   12b1c:	ce06                	sw	ra,28(sp)
   12b1e:	ca26                	sw	s1,20(sp)
   12b20:	c84a                	sw	s2,16(sp)
   12b22:	0007c703          	lbu	a4,0(a5)
   12b26:	c602                	sw	zero,12(sp)
   12b28:	842a                	mv	s0,a0
   12b2a:	00b71f63          	bne	a4,a1,12b48 <d_exprlist+0x32>
   12b2e:	4462                	lw	s0,24(sp)
   12b30:	40f2                	lw	ra,28(sp)
   12b32:	44d2                	lw	s1,20(sp)
   12b34:	4942                	lw	s2,16(sp)
   12b36:	0785                	addi	a5,a5,1
   12b38:	c55c                	sw	a5,12(a0)
   12b3a:	4681                	li	a3,0
   12b3c:	4601                	li	a2,0
   12b3e:	02e00593          	li	a1,46
   12b42:	6105                	addi	sp,sp,32
   12b44:	e55fd06f          	j	10998 <d_make_comp>
   12b48:	84ae                	mv	s1,a1
   12b4a:	00c10913          	addi	s2,sp,12
   12b4e:	8522                	mv	a0,s0
   12b50:	3765                	jal	12af8 <d_expression>
   12b52:	862a                	mv	a2,a0
   12b54:	e901                	bnez	a0,12b64 <d_exprlist+0x4e>
   12b56:	4501                	li	a0,0
   12b58:	40f2                	lw	ra,28(sp)
   12b5a:	4462                	lw	s0,24(sp)
   12b5c:	44d2                	lw	s1,20(sp)
   12b5e:	4942                	lw	s2,16(sp)
   12b60:	6105                	addi	sp,sp,32
   12b62:	8082                	ret
   12b64:	4681                	li	a3,0
   12b66:	02e00593          	li	a1,46
   12b6a:	8522                	mv	a0,s0
   12b6c:	e2dfd0ef          	jal	ra,10998 <d_make_comp>
   12b70:	00a92023          	sw	a0,0(s2)
   12b74:	d16d                	beqz	a0,12b56 <d_exprlist+0x40>
   12b76:	445c                	lw	a5,12(s0)
   12b78:	01050913          	addi	s2,a0,16
   12b7c:	0007c703          	lbu	a4,0(a5)
   12b80:	fc9717e3          	bne	a4,s1,12b4e <d_exprlist+0x38>
   12b84:	0785                	addi	a5,a5,1
   12b86:	4532                	lw	a0,12(sp)
   12b88:	c45c                	sw	a5,12(s0)
   12b8a:	b7f9                	j	12b58 <d_exprlist+0x42>

00012b8c <d_type>:
   12b8c:	7139                	addi	sp,sp,-64
   12b8e:	da26                	sw	s1,52(sp)
   12b90:	4544                	lw	s1,12(a0)
   12b92:	dc22                	sw	s0,56(sp)
   12b94:	842a                	mv	s0,a0
   12b96:	8526                	mv	a0,s1
   12b98:	de06                	sw	ra,60(sp)
   12b9a:	d84a                	sw	s2,48(sp)
   12b9c:	d64e                	sw	s3,44(sp)
   12b9e:	d452                	sw	s4,40(sp)
   12ba0:	d256                	sw	s5,36(sp)
   12ba2:	303d                	jal	123d0 <next_is_type_qual.isra.0>
   12ba4:	c135                	beqz	a0,12c08 <d_type+0x7c>
   12ba6:	4601                	li	a2,0
   12ba8:	086c                	addi	a1,sp,28
   12baa:	8522                	mv	a0,s0
   12bac:	74c000ef          	jal	ra,132f8 <d_cv_qualifiers>
   12bb0:	84aa                	mv	s1,a0
   12bb2:	e919                	bnez	a0,12bc8 <d_type+0x3c>
   12bb4:	4501                	li	a0,0
   12bb6:	50f2                	lw	ra,60(sp)
   12bb8:	5462                	lw	s0,56(sp)
   12bba:	54d2                	lw	s1,52(sp)
   12bbc:	5942                	lw	s2,48(sp)
   12bbe:	59b2                	lw	s3,44(sp)
   12bc0:	5a22                	lw	s4,40(sp)
   12bc2:	5a92                	lw	s5,36(sp)
   12bc4:	6121                	addi	sp,sp,64
   12bc6:	8082                	ret
   12bc8:	445c                	lw	a5,12(s0)
   12bca:	8522                	mv	a0,s0
   12bcc:	0007c703          	lbu	a4,0(a5)
   12bd0:	04600793          	li	a5,70
   12bd4:	02f71863          	bne	a4,a5,12c04 <d_type+0x78>
   12bd8:	123000ef          	jal	ra,134fa <d_function_type>
   12bdc:	c088                	sw	a0,0(s1)
   12bde:	409c                	lw	a5,0(s1)
   12be0:	dbf1                	beqz	a5,12bb4 <d_type+0x28>
   12be2:	4398                	lw	a4,0(a5)
   12be4:	4685                	li	a3,1
   12be6:	1705                	addi	a4,a4,-31
   12be8:	00e6e863          	bltu	a3,a4,12bf8 <d_type+0x6c>
   12bec:	46f2                	lw	a3,28(sp)
   12bee:	47d8                	lw	a4,12(a5)
   12bf0:	c7d4                	sw	a3,12(a5)
   12bf2:	409c                	lw	a5,0(s1)
   12bf4:	ce3e                	sw	a5,28(sp)
   12bf6:	c098                	sw	a4,0(s1)
   12bf8:	45f2                	lw	a1,28(sp)
   12bfa:	8522                	mv	a0,s0
   12bfc:	ff7fd0ef          	jal	ra,10bf2 <d_add_substitution>
   12c00:	ed21                	bnez	a0,12c58 <d_type+0xcc>
   12c02:	bf4d                	j	12bb4 <d_type+0x28>
   12c04:	3761                	jal	12b8c <d_type>
   12c06:	bfd9                	j	12bdc <d_type+0x50>
   12c08:	0004c583          	lbu	a1,0(s1)
   12c0c:	04a00713          	li	a4,74
   12c10:	fd058793          	addi	a5,a1,-48
   12c14:	0ff7f793          	zext.b	a5,a5
   12c18:	f8f76ee3          	bltu	a4,a5,12bb4 <d_type+0x28>
   12c1c:	00024737          	lui	a4,0x24
   12c20:	078a                	slli	a5,a5,0x2
   12c22:	1dc70713          	addi	a4,a4,476 # 241dc <_ZTVN10__cxxabiv117__class_type_infoE+0x554>
   12c26:	97ba                	add	a5,a5,a4
   12c28:	439c                	lw	a5,0(a5)
   12c2a:	8782                	jr	a5
   12c2c:	47d1                	li	a5,20
   12c2e:	f9f58593          	addi	a1,a1,-97
   12c32:	02f585b3          	mul	a1,a1,a5
   12c36:	000247b7          	lui	a5,0x24
   12c3a:	40878793          	addi	a5,a5,1032 # 24408 <cplus_demangle_builtin_types>
   12c3e:	8522                	mv	a0,s0
   12c40:	95be                	add	a1,a1,a5
   12c42:	ddffd0ef          	jal	ra,10a20 <d_make_builtin_type>
   12c46:	4558                	lw	a4,12(a0)
   12c48:	545c                	lw	a5,44(s0)
   12c4a:	ce2a                	sw	a0,28(sp)
   12c4c:	4358                	lw	a4,4(a4)
   12c4e:	97ba                	add	a5,a5,a4
   12c50:	d45c                	sw	a5,44(s0)
   12c52:	445c                	lw	a5,12(s0)
   12c54:	0785                	addi	a5,a5,1
   12c56:	c45c                	sw	a5,12(s0)
   12c58:	4572                	lw	a0,28(sp)
   12c5a:	bfb1                	j	12bb6 <d_type+0x2a>
   12c5c:	0485                	addi	s1,s1,1
   12c5e:	c444                	sw	s1,12(s0)
   12c60:	8522                	mv	a0,s0
   12c62:	918fe0ef          	jal	ra,10d7a <d_source_name>
   12c66:	862a                	mv	a2,a0
   12c68:	4681                	li	a3,0
   12c6a:	02800593          	li	a1,40
   12c6e:	8522                	mv	a0,s0
   12c70:	d29fd0ef          	jal	ra,10998 <d_make_comp>
   12c74:	a021                	j	12c7c <d_type+0xf0>
   12c76:	8522                	mv	a0,s0
   12c78:	083000ef          	jal	ra,134fa <d_function_type>
   12c7c:	ce2a                	sw	a0,28(sp)
   12c7e:	bfad                	j	12bf8 <d_type+0x6c>
   12c80:	8522                	mv	a0,s0
   12c82:	389000ef          	jal	ra,1380a <d_name>
   12c86:	bfdd                	j	12c7c <d_type+0xf0>
   12c88:	00148593          	addi	a1,s1,1
   12c8c:	c44c                	sw	a1,12(s0)
   12c8e:	0014c783          	lbu	a5,1(s1)
   12c92:	05f00713          	li	a4,95
   12c96:	04e78063          	beq	a5,a4,12cd6 <d_type+0x14a>
   12c9a:	fd078793          	addi	a5,a5,-48
   12c9e:	0ff7f793          	zext.b	a5,a5
   12ca2:	4725                	li	a4,9
   12ca4:	02f76663          	bltu	a4,a5,12cd0 <d_type+0x144>
   12ca8:	445c                	lw	a5,12(s0)
   12caa:	00178613          	addi	a2,a5,1
   12cae:	c450                	sw	a2,12(s0)
   12cb0:	0017c783          	lbu	a5,1(a5)
   12cb4:	fd078793          	addi	a5,a5,-48
   12cb8:	0ff7f793          	zext.b	a5,a5
   12cbc:	fef776e3          	bgeu	a4,a5,12ca8 <d_type+0x11c>
   12cc0:	8e0d                	sub	a2,a2,a1
   12cc2:	8522                	mv	a0,s0
   12cc4:	d29fd0ef          	jal	ra,109ec <d_make_name>
   12cc8:	862a                	mv	a2,a0
   12cca:	e519                	bnez	a0,12cd8 <d_type+0x14c>
   12ccc:	4501                	li	a0,0
   12cce:	b77d                	j	12c7c <d_type+0xf0>
   12cd0:	8522                	mv	a0,s0
   12cd2:	351d                	jal	12af8 <d_expression>
   12cd4:	bfd5                	j	12cc8 <d_type+0x13c>
   12cd6:	4601                	li	a2,0
   12cd8:	445c                	lw	a5,12(s0)
   12cda:	c632                	sw	a2,12(sp)
   12cdc:	05f00713          	li	a4,95
   12ce0:	0007c683          	lbu	a3,0(a5)
   12ce4:	fee694e3          	bne	a3,a4,12ccc <d_type+0x140>
   12ce8:	0785                	addi	a5,a5,1
   12cea:	c45c                	sw	a5,12(s0)
   12cec:	8522                	mv	a0,s0
   12cee:	3d79                	jal	12b8c <d_type>
   12cf0:	4632                	lw	a2,12(sp)
   12cf2:	86aa                	mv	a3,a0
   12cf4:	02a00593          	li	a1,42
   12cf8:	bf9d                	j	12c6e <d_type+0xe2>
   12cfa:	0485                	addi	s1,s1,1
   12cfc:	c444                	sw	s1,12(s0)
   12cfe:	8522                	mv	a0,s0
   12d00:	3571                	jal	12b8c <d_type>
   12d02:	d569                	beqz	a0,12ccc <d_type+0x140>
   12d04:	c62a                	sw	a0,12(sp)
   12d06:	8522                	mv	a0,s0
   12d08:	3551                	jal	12b8c <d_type>
   12d0a:	86aa                	mv	a3,a0
   12d0c:	d161                	beqz	a0,12ccc <d_type+0x140>
   12d0e:	4632                	lw	a2,12(sp)
   12d10:	02b00593          	li	a1,43
   12d14:	bfa9                	j	12c6e <d_type+0xe2>
   12d16:	8522                	mv	a0,s0
   12d18:	e9bfd0ef          	jal	ra,10bb2 <d_template_param>
   12d1c:	4444                	lw	s1,12(s0)
   12d1e:	ce2a                	sw	a0,28(sp)
   12d20:	04900793          	li	a5,73
   12d24:	0004c903          	lbu	s2,0(s1)
   12d28:	85aa                	mv	a1,a0
   12d2a:	ecf917e3          	bne	s2,a5,12bf8 <d_type+0x6c>
   12d2e:	585c                	lw	a5,52(s0)
   12d30:	ef89                	bnez	a5,12d4a <d_type+0x1be>
   12d32:	8522                	mv	a0,s0
   12d34:	ebffd0ef          	jal	ra,10bf2 <d_add_substitution>
   12d38:	e6050ee3          	beqz	a0,12bb4 <d_type+0x28>
   12d3c:	4672                	lw	a2,28(sp)
   12d3e:	8522                	mv	a0,s0
   12d40:	c632                	sw	a2,12(sp)
   12d42:	26dd                	jal	13128 <d_template_args>
   12d44:	4632                	lw	a2,12(sp)
   12d46:	86aa                	mv	a3,a0
   12d48:	a03d                	j	12d76 <d_type+0x1ea>
   12d4a:	8522                	mv	a0,s0
   12d4c:	01442a83          	lw	s5,20(s0)
   12d50:	02042a03          	lw	s4,32(s0)
   12d54:	02c42983          	lw	s3,44(s0)
   12d58:	2ec1                	jal	13128 <d_template_args>
   12d5a:	445c                	lw	a5,12(s0)
   12d5c:	0007c783          	lbu	a5,0(a5)
   12d60:	01279d63          	bne	a5,s2,12d7a <d_type+0x1ee>
   12d64:	45f2                	lw	a1,28(sp)
   12d66:	c62a                	sw	a0,12(sp)
   12d68:	8522                	mv	a0,s0
   12d6a:	e89fd0ef          	jal	ra,10bf2 <d_add_substitution>
   12d6e:	46b2                	lw	a3,12(sp)
   12d70:	e40503e3          	beqz	a0,12bb6 <d_type+0x2a>
   12d74:	4672                	lw	a2,28(sp)
   12d76:	4591                	li	a1,4
   12d78:	bddd                	j	12c6e <d_type+0xe2>
   12d7a:	c444                	sw	s1,12(s0)
   12d7c:	01542a23          	sw	s5,20(s0)
   12d80:	03442023          	sw	s4,32(s0)
   12d84:	03342623          	sw	s3,44(s0)
   12d88:	bd85                	j	12bf8 <d_type+0x6c>
   12d8a:	0014c783          	lbu	a5,1(s1)
   12d8e:	46a5                	li	a3,9
   12d90:	fd078713          	addi	a4,a5,-48
   12d94:	0ff77713          	zext.b	a4,a4
   12d98:	00e6fd63          	bgeu	a3,a4,12db2 <d_type+0x226>
   12d9c:	05f00713          	li	a4,95
   12da0:	00e78963          	beq	a5,a4,12db2 <d_type+0x226>
   12da4:	fbf78793          	addi	a5,a5,-65
   12da8:	0ff7f793          	zext.b	a5,a5
   12dac:	4765                	li	a4,25
   12dae:	02f76063          	bltu	a4,a5,12dce <d_type+0x242>
   12db2:	4581                	li	a1,0
   12db4:	8522                	mv	a0,s0
   12db6:	e64ff0ef          	jal	ra,1241a <d_substitution>
   12dba:	445c                	lw	a5,12(s0)
   12dbc:	ce2a                	sw	a0,28(sp)
   12dbe:	862a                	mv	a2,a0
   12dc0:	0007c703          	lbu	a4,0(a5)
   12dc4:	04900793          	li	a5,73
   12dc8:	e8f718e3          	bne	a4,a5,12c58 <d_type+0xcc>
   12dcc:	bf8d                	j	12d3e <d_type+0x1b2>
   12dce:	8522                	mv	a0,s0
   12dd0:	23b000ef          	jal	ra,1380a <d_name>
   12dd4:	ce2a                	sw	a0,28(sp)
   12dd6:	e20501e3          	beqz	a0,12bf8 <d_type+0x6c>
   12dda:	4118                	lw	a4,0(a0)
   12ddc:	47e1                	li	a5,24
   12dde:	e0f71de3          	bne	a4,a5,12bf8 <d_type+0x6c>
   12de2:	bd9d                	j	12c58 <d_type+0xcc>
   12de4:	0485                	addi	s1,s1,1
   12de6:	c444                	sw	s1,12(s0)
   12de8:	8522                	mv	a0,s0
   12dea:	334d                	jal	12b8c <d_type>
   12dec:	862a                	mv	a2,a0
   12dee:	4681                	li	a3,0
   12df0:	02400593          	li	a1,36
   12df4:	bdad                	j	12c6e <d_type+0xe2>
   12df6:	0485                	addi	s1,s1,1
   12df8:	c444                	sw	s1,12(s0)
   12dfa:	8522                	mv	a0,s0
   12dfc:	3b41                	jal	12b8c <d_type>
   12dfe:	862a                	mv	a2,a0
   12e00:	4681                	li	a3,0
   12e02:	02200593          	li	a1,34
   12e06:	b5a5                	j	12c6e <d_type+0xe2>
   12e08:	0485                	addi	s1,s1,1
   12e0a:	c444                	sw	s1,12(s0)
   12e0c:	8522                	mv	a0,s0
   12e0e:	3bbd                	jal	12b8c <d_type>
   12e10:	862a                	mv	a2,a0
   12e12:	4681                	li	a3,0
   12e14:	02300593          	li	a1,35
   12e18:	bd99                	j	12c6e <d_type+0xe2>
   12e1a:	0485                	addi	s1,s1,1
   12e1c:	c444                	sw	s1,12(s0)
   12e1e:	8522                	mv	a0,s0
   12e20:	33b5                	jal	12b8c <d_type>
   12e22:	862a                	mv	a2,a0
   12e24:	4681                	li	a3,0
   12e26:	02500593          	li	a1,37
   12e2a:	b591                	j	12c6e <d_type+0xe2>
   12e2c:	0485                	addi	s1,s1,1
   12e2e:	c444                	sw	s1,12(s0)
   12e30:	8522                	mv	a0,s0
   12e32:	3ba9                	jal	12b8c <d_type>
   12e34:	862a                	mv	a2,a0
   12e36:	4681                	li	a3,0
   12e38:	02600593          	li	a1,38
   12e3c:	bd0d                	j	12c6e <d_type+0xe2>
   12e3e:	0485                	addi	s1,s1,1
   12e40:	c444                	sw	s1,12(s0)
   12e42:	8522                	mv	a0,s0
   12e44:	f37fd0ef          	jal	ra,10d7a <d_source_name>
   12e48:	445c                	lw	a5,12(s0)
   12e4a:	ce2a                	sw	a0,28(sp)
   12e4c:	0007c703          	lbu	a4,0(a5)
   12e50:	04900793          	li	a5,73
   12e54:	00f71c63          	bne	a4,a5,12e6c <d_type+0x2e0>
   12e58:	c62a                	sw	a0,12(sp)
   12e5a:	8522                	mv	a0,s0
   12e5c:	24f1                	jal	13128 <d_template_args>
   12e5e:	4632                	lw	a2,12(sp)
   12e60:	86aa                	mv	a3,a0
   12e62:	4591                	li	a1,4
   12e64:	8522                	mv	a0,s0
   12e66:	b33fd0ef          	jal	ra,10998 <d_make_comp>
   12e6a:	ce2a                	sw	a0,28(sp)
   12e6c:	8522                	mv	a0,s0
   12e6e:	3b39                	jal	12b8c <d_type>
   12e70:	46f2                	lw	a3,28(sp)
   12e72:	862a                	mv	a2,a0
   12e74:	02100593          	li	a1,33
   12e78:	bbdd                	j	12c6e <d_type+0xe2>
   12e7a:	00148793          	addi	a5,s1,1
   12e7e:	c45c                	sw	a5,12(s0)
   12e80:	0014c783          	lbu	a5,1(s1)
   12e84:	d20788e3          	beqz	a5,12bb4 <d_type+0x28>
   12e88:	00248793          	addi	a5,s1,2
   12e8c:	c45c                	sw	a5,12(s0)
   12e8e:	0014c783          	lbu	a5,1(s1)
   12e92:	04600713          	li	a4,70
   12e96:	0ee78163          	beq	a5,a4,12f78 <d_type+0x3ec>
   12e9a:	fac78793          	addi	a5,a5,-84
   12e9e:	0ff7f793          	zext.b	a5,a5
   12ea2:	02200713          	li	a4,34
   12ea6:	d0f767e3          	bltu	a4,a5,12bb4 <d_type+0x28>
   12eaa:	00024737          	lui	a4,0x24
   12eae:	078a                	slli	a5,a5,0x2
   12eb0:	30870713          	addi	a4,a4,776 # 24308 <_ZTVN10__cxxabiv117__class_type_infoE+0x680>
   12eb4:	97ba                	add	a5,a5,a4
   12eb6:	439c                	lw	a5,0(a5)
   12eb8:	8782                	jr	a5
   12eba:	8522                	mv	a0,s0
   12ebc:	3935                	jal	12af8 <d_expression>
   12ebe:	862a                	mv	a2,a0
   12ec0:	4681                	li	a3,0
   12ec2:	04300593          	li	a1,67
   12ec6:	8522                	mv	a0,s0
   12ec8:	ad1fd0ef          	jal	ra,10998 <d_make_comp>
   12ecc:	ce2a                	sw	a0,28(sp)
   12ece:	d20505e3          	beqz	a0,12bf8 <d_type+0x6c>
   12ed2:	445c                	lw	a5,12(s0)
   12ed4:	0007c703          	lbu	a4,0(a5)
   12ed8:	e319                	bnez	a4,12ede <d_type+0x352>
   12eda:	ce02                	sw	zero,28(sp)
   12edc:	bb31                	j	12bf8 <d_type+0x6c>
   12ede:	00178713          	addi	a4,a5,1
   12ee2:	c458                	sw	a4,12(s0)
   12ee4:	0007c703          	lbu	a4,0(a5)
   12ee8:	04500793          	li	a5,69
   12eec:	fef717e3          	bne	a4,a5,12eda <d_type+0x34e>
   12ef0:	b321                	j	12bf8 <d_type+0x6c>
   12ef2:	8522                	mv	a0,s0
   12ef4:	3961                	jal	12b8c <d_type>
   12ef6:	862a                	mv	a2,a0
   12ef8:	4681                	li	a3,0
   12efa:	04b00593          	li	a1,75
   12efe:	bb85                	j	12c6e <d_type+0xe2>
   12f00:	000255b7          	lui	a1,0x25
   12f04:	4611                	li	a2,4
   12f06:	f4458593          	addi	a1,a1,-188 # 24f44 <cplus_demangle_operators+0x7d0>
   12f0a:	8522                	mv	a0,s0
   12f0c:	ae1fd0ef          	jal	ra,109ec <d_make_name>
   12f10:	ce2a                	sw	a0,28(sp)
   12f12:	b399                	j	12c58 <d_type+0xcc>
   12f14:	000255b7          	lui	a1,0x25
   12f18:	4639                	li	a2,14
   12f1a:	f4c58593          	addi	a1,a1,-180 # 24f4c <cplus_demangle_operators+0x7d8>
   12f1e:	b7f5                	j	12f0a <d_type+0x37e>
   12f20:	000245b7          	lui	a1,0x24
   12f24:	61058593          	addi	a1,a1,1552 # 24610 <cplus_demangle_builtin_types+0x208>
   12f28:	8522                	mv	a0,s0
   12f2a:	af7fd0ef          	jal	ra,10a20 <d_make_builtin_type>
   12f2e:	ce2a                	sw	a0,28(sp)
   12f30:	4558                	lw	a4,12(a0)
   12f32:	545c                	lw	a5,44(s0)
   12f34:	4358                	lw	a4,4(a4)
   12f36:	97ba                	add	a5,a5,a4
   12f38:	d45c                	sw	a5,44(s0)
   12f3a:	bb39                	j	12c58 <d_type+0xcc>
   12f3c:	000245b7          	lui	a1,0x24
   12f40:	62458593          	addi	a1,a1,1572 # 24624 <cplus_demangle_builtin_types+0x21c>
   12f44:	b7d5                	j	12f28 <d_type+0x39c>
   12f46:	000245b7          	lui	a1,0x24
   12f4a:	63858593          	addi	a1,a1,1592 # 24638 <cplus_demangle_builtin_types+0x230>
   12f4e:	bfe9                	j	12f28 <d_type+0x39c>
   12f50:	000245b7          	lui	a1,0x24
   12f54:	64c58593          	addi	a1,a1,1612 # 2464c <cplus_demangle_builtin_types+0x244>
   12f58:	bfc1                	j	12f28 <d_type+0x39c>
   12f5a:	000245b7          	lui	a1,0x24
   12f5e:	66058593          	addi	a1,a1,1632 # 24660 <cplus_demangle_builtin_types+0x258>
   12f62:	b7d9                	j	12f28 <d_type+0x39c>
   12f64:	000245b7          	lui	a1,0x24
   12f68:	67458593          	addi	a1,a1,1652 # 24674 <cplus_demangle_builtin_types+0x26c>
   12f6c:	bf75                	j	12f28 <d_type+0x39c>
   12f6e:	000245b7          	lui	a1,0x24
   12f72:	68858593          	addi	a1,a1,1672 # 24688 <cplus_demangle_builtin_types+0x280>
   12f76:	bf4d                	j	12f28 <d_type+0x39c>
   12f78:	8522                	mv	a0,s0
   12f7a:	9f9fd0ef          	jal	ra,10972 <d_make_empty>
   12f7e:	ce2a                	sw	a0,28(sp)
   12f80:	02c00793          	li	a5,44
   12f84:	c11c                	sw	a5,0(a0)
   12f86:	445c                	lw	a5,12(s0)
   12f88:	0007c783          	lbu	a5,0(a5)
   12f8c:	fd078793          	addi	a5,a5,-48
   12f90:	0ff7f793          	zext.b	a5,a5
   12f94:	00a7b713          	sltiu	a4,a5,10
   12f98:	00e51823          	sh	a4,16(a0)
   12f9c:	4725                	li	a4,9
   12f9e:	00f76563          	bltu	a4,a5,12fa8 <d_type+0x41c>
   12fa2:	8522                	mv	a0,s0
   12fa4:	a99fd0ef          	jal	ra,10a3c <d_number>
   12fa8:	8522                	mv	a0,s0
   12faa:	44f2                	lw	s1,28(sp)
   12fac:	36c5                	jal	12b8c <d_type>
   12fae:	47f2                	lw	a5,28(sp)
   12fb0:	c4c8                	sw	a0,12(s1)
   12fb2:	47dc                	lw	a5,12(a5)
   12fb4:	c00780e3          	beqz	a5,12bb4 <d_type+0x28>
   12fb8:	8522                	mv	a0,s0
   12fba:	a83fd0ef          	jal	ra,10a3c <d_number>
   12fbe:	4458                	lw	a4,12(s0)
   12fc0:	00074783          	lbu	a5,0(a4)
   12fc4:	c791                	beqz	a5,12fd0 <d_type+0x444>
   12fc6:	00170793          	addi	a5,a4,1
   12fca:	c45c                	sw	a5,12(s0)
   12fcc:	00074783          	lbu	a5,0(a4)
   12fd0:	4772                	lw	a4,28(sp)
   12fd2:	f8d78793          	addi	a5,a5,-115
   12fd6:	0017b793          	seqz	a5,a5
   12fda:	00f71923          	sh	a5,18(a4)
   12fde:	b9ad                	j	12c58 <d_type+0xcc>
   12fe0:	0024c703          	lbu	a4,2(s1)
   12fe4:	05f00793          	li	a5,95
   12fe8:	02f71f63          	bne	a4,a5,13026 <d_type+0x49a>
   12fec:	048d                	addi	s1,s1,3
   12fee:	c444                	sw	s1,12(s0)
   12ff0:	8522                	mv	a0,s0
   12ff2:	3619                	jal	12af8 <d_expression>
   12ff4:	862a                	mv	a2,a0
   12ff6:	c515                	beqz	a0,13022 <d_type+0x496>
   12ff8:	445c                	lw	a5,12(s0)
   12ffa:	c62a                	sw	a0,12(sp)
   12ffc:	05f00713          	li	a4,95
   13000:	0007c683          	lbu	a3,0(a5)
   13004:	4601                	li	a2,0
   13006:	00e69e63          	bne	a3,a4,13022 <d_type+0x496>
   1300a:	0785                	addi	a5,a5,1
   1300c:	c45c                	sw	a5,12(s0)
   1300e:	8522                	mv	a0,s0
   13010:	3eb5                	jal	12b8c <d_type>
   13012:	4632                	lw	a2,12(sp)
   13014:	86aa                	mv	a3,a0
   13016:	02d00593          	li	a1,45
   1301a:	8522                	mv	a0,s0
   1301c:	97dfd0ef          	jal	ra,10998 <d_make_comp>
   13020:	862a                	mv	a2,a0
   13022:	ce32                	sw	a2,28(sp)
   13024:	bed1                	j	12bf8 <d_type+0x6c>
   13026:	8522                	mv	a0,s0
   13028:	a7bfd0ef          	jal	ra,10aa2 <d_number_component>
   1302c:	b7e1                	j	12ff4 <d_type+0x468>
   1302e:	000245b7          	lui	a1,0x24
   13032:	69c58593          	addi	a1,a1,1692 # 2469c <cplus_demangle_builtin_types+0x294>
   13036:	bdcd                	j	12f28 <d_type+0x39c>

00013038 <d_template_arg>:
   13038:	4558                	lw	a4,12(a0)
   1303a:	04c00693          	li	a3,76
   1303e:	00074783          	lbu	a5,0(a4)
   13042:	04d78863          	beq	a5,a3,13092 <d_template_arg+0x5a>
   13046:	1141                	addi	sp,sp,-16
   13048:	c422                	sw	s0,8(sp)
   1304a:	c606                	sw	ra,12(sp)
   1304c:	842a                	mv	s0,a0
   1304e:	00f6ee63          	bltu	a3,a5,1306a <d_template_arg+0x32>
   13052:	fb778793          	addi	a5,a5,-73
   13056:	0ff7f793          	zext.b	a5,a5
   1305a:	4705                	li	a4,1
   1305c:	02f77d63          	bgeu	a4,a5,13096 <d_template_arg+0x5e>
   13060:	8522                	mv	a0,s0
   13062:	4422                	lw	s0,8(sp)
   13064:	40b2                	lw	ra,12(sp)
   13066:	0141                	addi	sp,sp,16
   13068:	b615                	j	12b8c <d_type>
   1306a:	05800693          	li	a3,88
   1306e:	fed799e3          	bne	a5,a3,13060 <d_template_arg+0x28>
   13072:	0705                	addi	a4,a4,1
   13074:	c558                	sw	a4,12(a0)
   13076:	3449                	jal	12af8 <d_expression>
   13078:	445c                	lw	a5,12(s0)
   1307a:	04500713          	li	a4,69
   1307e:	0007c683          	lbu	a3,0(a5)
   13082:	00e69e63          	bne	a3,a4,1309e <d_template_arg+0x66>
   13086:	0785                	addi	a5,a5,1
   13088:	c45c                	sw	a5,12(s0)
   1308a:	40b2                	lw	ra,12(sp)
   1308c:	4422                	lw	s0,8(sp)
   1308e:	0141                	addi	sp,sp,16
   13090:	8082                	ret
   13092:	d1cff06f          	j	125ae <d_expr_primary>
   13096:	4422                	lw	s0,8(sp)
   13098:	40b2                	lw	ra,12(sp)
   1309a:	0141                	addi	sp,sp,16
   1309c:	a071                	j	13128 <d_template_args>
   1309e:	4501                	li	a0,0
   130a0:	b7ed                	j	1308a <d_template_arg+0x52>

000130a2 <d_template_args_1>:
   130a2:	455c                	lw	a5,12(a0)
   130a4:	7179                	addi	sp,sp,-48
   130a6:	d422                	sw	s0,40(sp)
   130a8:	d04a                	sw	s2,32(sp)
   130aa:	d606                	sw	ra,44(sp)
   130ac:	d226                	sw	s1,36(sp)
   130ae:	ce4e                	sw	s3,28(sp)
   130b0:	0007c683          	lbu	a3,0(a5)
   130b4:	04500713          	li	a4,69
   130b8:	02852903          	lw	s2,40(a0)
   130bc:	842a                	mv	s0,a0
   130be:	02e69063          	bne	a3,a4,130de <d_template_args_1+0x3c>
   130c2:	5422                	lw	s0,40(sp)
   130c4:	50b2                	lw	ra,44(sp)
   130c6:	5492                	lw	s1,36(sp)
   130c8:	5902                	lw	s2,32(sp)
   130ca:	49f2                	lw	s3,28(sp)
   130cc:	0785                	addi	a5,a5,1
   130ce:	c55c                	sw	a5,12(a0)
   130d0:	4681                	li	a3,0
   130d2:	4601                	li	a2,0
   130d4:	02f00593          	li	a1,47
   130d8:	6145                	addi	sp,sp,48
   130da:	8bffd06f          	j	10998 <d_make_comp>
   130de:	c602                	sw	zero,12(sp)
   130e0:	0064                	addi	s1,sp,12
   130e2:	04500993          	li	s3,69
   130e6:	8522                	mv	a0,s0
   130e8:	3f81                	jal	13038 <d_template_arg>
   130ea:	862a                	mv	a2,a0
   130ec:	e909                	bnez	a0,130fe <d_template_args_1+0x5c>
   130ee:	4501                	li	a0,0
   130f0:	50b2                	lw	ra,44(sp)
   130f2:	5422                	lw	s0,40(sp)
   130f4:	5492                	lw	s1,36(sp)
   130f6:	5902                	lw	s2,32(sp)
   130f8:	49f2                	lw	s3,28(sp)
   130fa:	6145                	addi	sp,sp,48
   130fc:	8082                	ret
   130fe:	4681                	li	a3,0
   13100:	02f00593          	li	a1,47
   13104:	8522                	mv	a0,s0
   13106:	893fd0ef          	jal	ra,10998 <d_make_comp>
   1310a:	c088                	sw	a0,0(s1)
   1310c:	d16d                	beqz	a0,130ee <d_template_args_1+0x4c>
   1310e:	445c                	lw	a5,12(s0)
   13110:	01050493          	addi	s1,a0,16
   13114:	0007c703          	lbu	a4,0(a5)
   13118:	fd3717e3          	bne	a4,s3,130e6 <d_template_args_1+0x44>
   1311c:	0785                	addi	a5,a5,1
   1311e:	4532                	lw	a0,12(sp)
   13120:	c45c                	sw	a5,12(s0)
   13122:	03242423          	sw	s2,40(s0)
   13126:	b7e9                	j	130f0 <d_template_args_1+0x4e>

00013128 <d_template_args>:
   13128:	4554                	lw	a3,12(a0)
   1312a:	4605                	li	a2,1
   1312c:	0006c783          	lbu	a5,0(a3)
   13130:	fb778793          	addi	a5,a5,-73
   13134:	0ff7f793          	zext.b	a5,a5
   13138:	00f66563          	bltu	a2,a5,13142 <d_template_args+0x1a>
   1313c:	0685                	addi	a3,a3,1
   1313e:	c554                	sw	a3,12(a0)
   13140:	b78d                	j	130a2 <d_template_args_1>
   13142:	4501                	li	a0,0
   13144:	8082                	ret

00013146 <d_operator_name>:
   13146:	455c                	lw	a5,12(a0)
   13148:	1141                	addi	sp,sp,-16
   1314a:	c422                	sw	s0,8(sp)
   1314c:	c606                	sw	ra,12(sp)
   1314e:	c226                	sw	s1,4(sp)
   13150:	c04a                	sw	s2,0(sp)
   13152:	0007c703          	lbu	a4,0(a5)
   13156:	842a                	mv	s0,a0
   13158:	c711                	beqz	a4,13164 <d_operator_name+0x1e>
   1315a:	00178713          	addi	a4,a5,1
   1315e:	c558                	sw	a4,12(a0)
   13160:	0007c703          	lbu	a4,0(a5)
   13164:	445c                	lw	a5,12(s0)
   13166:	0007c683          	lbu	a3,0(a5)
   1316a:	c6c1                	beqz	a3,131f2 <d_operator_name+0xac>
   1316c:	00178693          	addi	a3,a5,1
   13170:	c454                	sw	a3,12(s0)
   13172:	0007c683          	lbu	a3,0(a5)
   13176:	07600793          	li	a5,118
   1317a:	04f71263          	bne	a4,a5,131be <d_operator_name+0x78>
   1317e:	fd068913          	addi	s2,a3,-48
   13182:	0ff97613          	zext.b	a2,s2
   13186:	47a5                	li	a5,9
   13188:	06c7e563          	bltu	a5,a2,131f2 <d_operator_name+0xac>
   1318c:	8522                	mv	a0,s0
   1318e:	bedfd0ef          	jal	ra,10d7a <d_source_name>
   13192:	84aa                	mv	s1,a0
   13194:	8522                	mv	a0,s0
   13196:	fdcfd0ef          	jal	ra,10972 <d_make_empty>
   1319a:	c945                	beqz	a0,1324a <d_operator_name+0x104>
   1319c:	c4dd                	beqz	s1,1324a <d_operator_name+0x104>
   1319e:	03300793          	li	a5,51
   131a2:	00052223          	sw	zero,4(a0)
   131a6:	00052423          	sw	zero,8(a0)
   131aa:	c11c                	sw	a5,0(a0)
   131ac:	01252623          	sw	s2,12(a0)
   131b0:	c904                	sw	s1,16(a0)
   131b2:	40b2                	lw	ra,12(sp)
   131b4:	4422                	lw	s0,8(sp)
   131b6:	4492                	lw	s1,4(sp)
   131b8:	4902                	lw	s2,0(sp)
   131ba:	0141                	addi	sp,sp,16
   131bc:	8082                	ret
   131be:	06300613          	li	a2,99
   131c2:	02c71863          	bne	a4,a2,131f2 <d_operator_name+0xac>
   131c6:	02f69663          	bne	a3,a5,131f2 <d_operator_name+0xac>
   131ca:	581c                	lw	a5,48(s0)
   131cc:	5844                	lw	s1,52(s0)
   131ce:	8522                	mv	a0,s0
   131d0:	0017b793          	seqz	a5,a5
   131d4:	d85c                	sw	a5,52(s0)
   131d6:	3a5d                	jal	12b8c <d_type>
   131d8:	585c                	lw	a5,52(s0)
   131da:	862a                	mv	a2,a0
   131dc:	4681                	li	a3,0
   131de:	03500593          	li	a1,53
   131e2:	e399                	bnez	a5,131e8 <d_operator_name+0xa2>
   131e4:	03400593          	li	a1,52
   131e8:	8522                	mv	a0,s0
   131ea:	faefd0ef          	jal	ra,10998 <d_make_comp>
   131ee:	d844                	sw	s1,52(s0)
   131f0:	b7c9                	j	131b2 <d_operator_name+0x6c>
   131f2:	00024537          	lui	a0,0x24
   131f6:	04500593          	li	a1,69
   131fa:	4601                	li	a2,0
   131fc:	4309                	li	t1,2
   131fe:	77450513          	addi	a0,a0,1908 # 24774 <cplus_demangle_operators>
   13202:	40c587b3          	sub	a5,a1,a2
   13206:	0267c7b3          	div	a5,a5,t1
   1320a:	97b2                	add	a5,a5,a2
   1320c:	00479493          	slli	s1,a5,0x4
   13210:	94aa                	add	s1,s1,a0
   13212:	0004a883          	lw	a7,0(s1)
   13216:	0008c803          	lbu	a6,0(a7)
   1321a:	02e81a63          	bne	a6,a4,1324e <d_operator_name+0x108>
   1321e:	0018c803          	lbu	a6,1(a7)
   13222:	00d81d63          	bne	a6,a3,1323c <d_operator_name+0xf6>
   13226:	8522                	mv	a0,s0
   13228:	f4afd0ef          	jal	ra,10972 <d_make_empty>
   1322c:	d159                	beqz	a0,131b2 <d_operator_name+0x6c>
   1322e:	03200793          	li	a5,50
   13232:	c11c                	sw	a5,0(a0)
   13234:	c544                	sw	s1,12(a0)
   13236:	bfb5                	j	131b2 <d_operator_name+0x6c>
   13238:	85be                	mv	a1,a5
   1323a:	b7e1                	j	13202 <d_operator_name+0xbc>
   1323c:	0106e563          	bltu	a3,a6,13246 <d_operator_name+0x100>
   13240:	00178613          	addi	a2,a5,1
   13244:	87ae                	mv	a5,a1
   13246:	fef619e3          	bne	a2,a5,13238 <d_operator_name+0xf2>
   1324a:	4501                	li	a0,0
   1324c:	b79d                	j	131b2 <d_operator_name+0x6c>
   1324e:	ff076ce3          	bltu	a4,a6,13246 <d_operator_name+0x100>
   13252:	b7fd                	j	13240 <d_operator_name+0xfa>

00013254 <d_parmlist>:
   13254:	7179                	addi	sp,sp,-48
   13256:	d422                	sw	s0,40(sp)
   13258:	d226                	sw	s1,36(sp)
   1325a:	d04a                	sw	s2,32(sp)
   1325c:	ce4e                	sw	s3,28(sp)
   1325e:	cc52                	sw	s4,24(sp)
   13260:	ca56                	sw	s5,20(sp)
   13262:	d606                	sw	ra,44(sp)
   13264:	842a                	mv	s0,a0
   13266:	c602                	sw	zero,12(sp)
   13268:	0064                	addi	s1,sp,12
   1326a:	04500913          	li	s2,69
   1326e:	02e00993          	li	s3,46
   13272:	05200a13          	li	s4,82
   13276:	04f00a93          	li	s5,79
   1327a:	4458                	lw	a4,12(s0)
   1327c:	00074783          	lbu	a5,0(a4)
   13280:	c7b1                	beqz	a5,132cc <d_parmlist+0x78>
   13282:	05278563          	beq	a5,s2,132cc <d_parmlist+0x78>
   13286:	05378363          	beq	a5,s3,132cc <d_parmlist+0x78>
   1328a:	01478463          	beq	a5,s4,13292 <d_parmlist+0x3e>
   1328e:	01579663          	bne	a5,s5,1329a <d_parmlist+0x46>
   13292:	00174783          	lbu	a5,1(a4)
   13296:	03278b63          	beq	a5,s2,132cc <d_parmlist+0x78>
   1329a:	8522                	mv	a0,s0
   1329c:	38c5                	jal	12b8c <d_type>
   1329e:	862a                	mv	a2,a0
   132a0:	e919                	bnez	a0,132b6 <d_parmlist+0x62>
   132a2:	4501                	li	a0,0
   132a4:	50b2                	lw	ra,44(sp)
   132a6:	5422                	lw	s0,40(sp)
   132a8:	5492                	lw	s1,36(sp)
   132aa:	5902                	lw	s2,32(sp)
   132ac:	49f2                	lw	s3,28(sp)
   132ae:	4a62                	lw	s4,24(sp)
   132b0:	4ad2                	lw	s5,20(sp)
   132b2:	6145                	addi	sp,sp,48
   132b4:	8082                	ret
   132b6:	4681                	li	a3,0
   132b8:	02e00593          	li	a1,46
   132bc:	8522                	mv	a0,s0
   132be:	edafd0ef          	jal	ra,10998 <d_make_comp>
   132c2:	c088                	sw	a0,0(s1)
   132c4:	dd79                	beqz	a0,132a2 <d_parmlist+0x4e>
   132c6:	01050493          	addi	s1,a0,16
   132ca:	bf45                	j	1327a <d_parmlist+0x26>
   132cc:	4532                	lw	a0,12(sp)
   132ce:	d971                	beqz	a0,132a2 <d_parmlist+0x4e>
   132d0:	491c                	lw	a5,16(a0)
   132d2:	fbe9                	bnez	a5,132a4 <d_parmlist+0x50>
   132d4:	455c                	lw	a5,12(a0)
   132d6:	02700713          	li	a4,39
   132da:	4394                	lw	a3,0(a5)
   132dc:	fce694e3          	bne	a3,a4,132a4 <d_parmlist+0x50>
   132e0:	47d8                	lw	a4,12(a5)
   132e2:	47a5                	li	a5,9
   132e4:	4b14                	lw	a3,16(a4)
   132e6:	faf69fe3          	bne	a3,a5,132a4 <d_parmlist+0x50>
   132ea:	545c                	lw	a5,44(s0)
   132ec:	4358                	lw	a4,4(a4)
   132ee:	8f99                	sub	a5,a5,a4
   132f0:	d45c                	sw	a5,44(s0)
   132f2:	00052623          	sw	zero,12(a0)
   132f6:	b77d                	j	132a4 <d_parmlist+0x50>

000132f8 <d_cv_qualifiers>:
   132f8:	4558                	lw	a4,12(a0)
   132fa:	715d                	addi	sp,sp,-80
   132fc:	c4a2                	sw	s0,72(sp)
   132fe:	c0ca                	sw	s2,64(sp)
   13300:	d462                	sw	s8,40(sp)
   13302:	c686                	sw	ra,76(sp)
   13304:	c2a6                	sw	s1,68(sp)
   13306:	de4e                	sw	s3,60(sp)
   13308:	dc52                	sw	s4,56(sp)
   1330a:	da56                	sw	s5,52(sp)
   1330c:	d85a                	sw	s6,48(sp)
   1330e:	d65e                	sw	s7,44(sp)
   13310:	d266                	sw	s9,36(sp)
   13312:	d06a                	sw	s10,32(sp)
   13314:	ce6e                	sw	s11,28(sp)
   13316:	00074703          	lbu	a4,0(a4)
   1331a:	8c2a                	mv	s8,a0
   1331c:	842e                	mv	s0,a1
   1331e:	8932                	mv	s2,a2
   13320:	c23d                	beqz	a2,13386 <d_cv_qualifiers+0x8e>
   13322:	49f9                	li	s3,30
   13324:	4a75                	li	s4,29
   13326:	4af1                	li	s5,28
   13328:	84a2                	mv	s1,s0
   1332a:	04b00c93          	li	s9,75
   1332e:	07800d13          	li	s10,120
   13332:	06f00d93          	li	s11,111
   13336:	04f00b13          	li	s6,79
   1333a:	04500b93          	li	s7,69
   1333e:	00cc2683          	lw	a3,12(s8)
   13342:	c63a                	sw	a4,12(sp)
   13344:	8536                	mv	a0,a3
   13346:	c436                	sw	a3,8(sp)
   13348:	888ff0ef          	jal	ra,123d0 <next_is_type_qual.isra.0>
   1334c:	46a2                	lw	a3,8(sp)
   1334e:	4732                	lw	a4,12(sp)
   13350:	ed1d                	bnez	a0,1338e <d_cv_qualifiers+0x96>
   13352:	0a091263          	bnez	s2,133f6 <d_cv_qualifiers+0xfe>
   13356:	04600793          	li	a5,70
   1335a:	08f71e63          	bne	a4,a5,133f6 <d_cv_qualifiers+0xfe>
   1335e:	4769                	li	a4,26
   13360:	46f5                	li	a3,29
   13362:	466d                	li	a2,27
   13364:	45f9                	li	a1,30
   13366:	4565                	li	a0,25
   13368:	4871                	li	a6,28
   1336a:	08848663          	beq	s1,s0,133f6 <d_cv_qualifiers+0xfe>
   1336e:	4000                	lw	s0,0(s0)
   13370:	401c                	lw	a5,0(s0)
   13372:	12e78963          	beq	a5,a4,134a4 <d_cv_qualifiers+0x1ac>
   13376:	12c78963          	beq	a5,a2,134a8 <d_cv_qualifiers+0x1b0>
   1337a:	00a79463          	bne	a5,a0,13382 <d_cv_qualifiers+0x8a>
   1337e:	01042023          	sw	a6,0(s0)
   13382:	0431                	addi	s0,s0,12
   13384:	b7dd                	j	1336a <d_cv_qualifiers+0x72>
   13386:	49ed                	li	s3,27
   13388:	4a69                	li	s4,26
   1338a:	4ae5                	li	s5,25
   1338c:	bf71                	j	13328 <d_cv_qualifiers+0x30>
   1338e:	00168613          	addi	a2,a3,1
   13392:	00cc2623          	sw	a2,12(s8)
   13396:	07200793          	li	a5,114
   1339a:	02f71663          	bne	a4,a5,133c6 <d_cv_qualifiers+0xce>
   1339e:	02cc2703          	lw	a4,44(s8)
   133a2:	85d6                	mv	a1,s5
   133a4:	0725                	addi	a4,a4,9
   133a6:	02ec2623          	sw	a4,44(s8)
   133aa:	4681                	li	a3,0
   133ac:	4601                	li	a2,0
   133ae:	8562                	mv	a0,s8
   133b0:	de8fd0ef          	jal	ra,10998 <d_make_comp>
   133b4:	c088                	sw	a0,0(s1)
   133b6:	cd1d                	beqz	a0,133f4 <d_cv_qualifiers+0xfc>
   133b8:	00cc2703          	lw	a4,12(s8)
   133bc:	00c50493          	addi	s1,a0,12
   133c0:	00074703          	lbu	a4,0(a4)
   133c4:	bfad                	j	1333e <d_cv_qualifiers+0x46>
   133c6:	05600793          	li	a5,86
   133ca:	00f71963          	bne	a4,a5,133dc <d_cv_qualifiers+0xe4>
   133ce:	02cc2703          	lw	a4,44(s8)
   133d2:	85d2                	mv	a1,s4
   133d4:	0725                	addi	a4,a4,9
   133d6:	02ec2623          	sw	a4,44(s8)
   133da:	bfc1                	j	133aa <d_cv_qualifiers+0xb2>
   133dc:	01971963          	bne	a4,s9,133ee <d_cv_qualifiers+0xf6>
   133e0:	02cc2703          	lw	a4,44(s8)
   133e4:	85ce                	mv	a1,s3
   133e6:	0719                	addi	a4,a4,6
   133e8:	02ec2623          	sw	a4,44(s8)
   133ec:	bf7d                	j	133aa <d_cv_qualifiers+0xb2>
   133ee:	0016c703          	lbu	a4,1(a3)
   133f2:	e315                	bnez	a4,13416 <d_cv_qualifiers+0x11e>
   133f4:	4481                	li	s1,0
   133f6:	40b6                	lw	ra,76(sp)
   133f8:	4426                	lw	s0,72(sp)
   133fa:	4906                	lw	s2,64(sp)
   133fc:	59f2                	lw	s3,60(sp)
   133fe:	5a62                	lw	s4,56(sp)
   13400:	5ad2                	lw	s5,52(sp)
   13402:	5b42                	lw	s6,48(sp)
   13404:	5bb2                	lw	s7,44(sp)
   13406:	5c22                	lw	s8,40(sp)
   13408:	5c92                	lw	s9,36(sp)
   1340a:	5d02                	lw	s10,32(sp)
   1340c:	4df2                	lw	s11,28(sp)
   1340e:	8526                	mv	a0,s1
   13410:	4496                	lw	s1,68(sp)
   13412:	6161                	addi	sp,sp,80
   13414:	8082                	ret
   13416:	00268713          	addi	a4,a3,2
   1341a:	00ec2623          	sw	a4,12(s8)
   1341e:	0016c703          	lbu	a4,1(a3)
   13422:	01a71b63          	bne	a4,s10,13438 <d_cv_qualifiers+0x140>
   13426:	02cc2703          	lw	a4,44(s8)
   1342a:	4681                	li	a3,0
   1342c:	04d00593          	li	a1,77
   13430:	0745                	addi	a4,a4,17
   13432:	02ec2623          	sw	a4,44(s8)
   13436:	bf9d                	j	133ac <d_cv_qualifiers+0xb4>
   13438:	01b70463          	beq	a4,s11,13440 <d_cv_qualifiers+0x148>
   1343c:	03671b63          	bne	a4,s6,13472 <d_cv_qualifiers+0x17a>
   13440:	02cc2683          	lw	a3,44(s8)
   13444:	06a5                	addi	a3,a3,9
   13446:	02dc2623          	sw	a3,44(s8)
   1344a:	4681                	li	a3,0
   1344c:	03671063          	bne	a4,s6,1346c <d_cv_qualifiers+0x174>
   13450:	8562                	mv	a0,s8
   13452:	ea6ff0ef          	jal	ra,12af8 <d_expression>
   13456:	86aa                	mv	a3,a0
   13458:	dd51                	beqz	a0,133f4 <d_cv_qualifiers+0xfc>
   1345a:	00cc2703          	lw	a4,12(s8)
   1345e:	00074603          	lbu	a2,0(a4)
   13462:	f97619e3          	bne	a2,s7,133f4 <d_cv_qualifiers+0xfc>
   13466:	0705                	addi	a4,a4,1
   13468:	00ec2623          	sw	a4,12(s8)
   1346c:	04f00593          	li	a1,79
   13470:	bf35                	j	133ac <d_cv_qualifiers+0xb4>
   13472:	07700693          	li	a3,119
   13476:	f6d71fe3          	bne	a4,a3,133f4 <d_cv_qualifiers+0xfc>
   1347a:	02cc2703          	lw	a4,44(s8)
   1347e:	8562                	mv	a0,s8
   13480:	0719                	addi	a4,a4,6
   13482:	02ec2623          	sw	a4,44(s8)
   13486:	33f9                	jal	13254 <d_parmlist>
   13488:	86aa                	mv	a3,a0
   1348a:	d52d                	beqz	a0,133f4 <d_cv_qualifiers+0xfc>
   1348c:	00cc2703          	lw	a4,12(s8)
   13490:	00074603          	lbu	a2,0(a4)
   13494:	f77610e3          	bne	a2,s7,133f4 <d_cv_qualifiers+0xfc>
   13498:	0705                	addi	a4,a4,1
   1349a:	00ec2623          	sw	a4,12(s8)
   1349e:	05000593          	li	a1,80
   134a2:	b729                	j	133ac <d_cv_qualifiers+0xb4>
   134a4:	c014                	sw	a3,0(s0)
   134a6:	bdf1                	j	13382 <d_cv_qualifiers+0x8a>
   134a8:	c00c                	sw	a1,0(s0)
   134aa:	bde1                	j	13382 <d_cv_qualifiers+0x8a>

000134ac <d_bare_function_type>:
   134ac:	455c                	lw	a5,12(a0)
   134ae:	1101                	addi	sp,sp,-32
   134b0:	cc22                	sw	s0,24(sp)
   134b2:	ce06                	sw	ra,28(sp)
   134b4:	0007c683          	lbu	a3,0(a5)
   134b8:	04a00713          	li	a4,74
   134bc:	842a                	mv	s0,a0
   134be:	00e69e63          	bne	a3,a4,134da <d_bare_function_type+0x2e>
   134c2:	0785                	addi	a5,a5,1
   134c4:	c55c                	sw	a5,12(a0)
   134c6:	8522                	mv	a0,s0
   134c8:	ec4ff0ef          	jal	ra,12b8c <d_type>
   134cc:	862a                	mv	a2,a0
   134ce:	e901                	bnez	a0,134de <d_bare_function_type+0x32>
   134d0:	40f2                	lw	ra,28(sp)
   134d2:	4462                	lw	s0,24(sp)
   134d4:	4501                	li	a0,0
   134d6:	6105                	addi	sp,sp,32
   134d8:	8082                	ret
   134da:	f5f5                	bnez	a1,134c6 <d_bare_function_type+0x1a>
   134dc:	4601                	li	a2,0
   134de:	8522                	mv	a0,s0
   134e0:	c632                	sw	a2,12(sp)
   134e2:	3b8d                	jal	13254 <d_parmlist>
   134e4:	86aa                	mv	a3,a0
   134e6:	d56d                	beqz	a0,134d0 <d_bare_function_type+0x24>
   134e8:	8522                	mv	a0,s0
   134ea:	4462                	lw	s0,24(sp)
   134ec:	4632                	lw	a2,12(sp)
   134ee:	40f2                	lw	ra,28(sp)
   134f0:	02900593          	li	a1,41
   134f4:	6105                	addi	sp,sp,32
   134f6:	ca2fd06f          	j	10998 <d_make_comp>

000134fa <d_function_type>:
   134fa:	4518                	lw	a4,8(a0)
   134fc:	1141                	addi	sp,sp,-16
   134fe:	000407b7          	lui	a5,0x40
   13502:	c422                	sw	s0,8(sp)
   13504:	c606                	sw	ra,12(sp)
   13506:	8ff9                	and	a5,a5,a4
   13508:	842a                	mv	s0,a0
   1350a:	eb91                	bnez	a5,1351e <d_function_type+0x24>
   1350c:	5d1c                	lw	a5,56(a0)
   1350e:	6705                	lui	a4,0x1
   13510:	80070713          	addi	a4,a4,-2048 # 800 <_GLOBAL__sub_I__ZN9__gnu_cxx9__freeresEv-0xf874>
   13514:	4501                	li	a0,0
   13516:	02f76463          	bltu	a4,a5,1353e <d_function_type+0x44>
   1351a:	0785                	addi	a5,a5,1
   1351c:	dc1c                	sw	a5,56(s0)
   1351e:	445c                	lw	a5,12(s0)
   13520:	04600713          	li	a4,70
   13524:	0007c683          	lbu	a3,0(a5) # 40000 <__BSS_END__+0x16acc>
   13528:	00e68f63          	beq	a3,a4,13546 <d_function_type+0x4c>
   1352c:	4501                	li	a0,0
   1352e:	4418                	lw	a4,8(s0)
   13530:	000407b7          	lui	a5,0x40
   13534:	8ff9                	and	a5,a5,a4
   13536:	e781                	bnez	a5,1353e <d_function_type+0x44>
   13538:	5c1c                	lw	a5,56(s0)
   1353a:	17fd                	addi	a5,a5,-1
   1353c:	dc1c                	sw	a5,56(s0)
   1353e:	40b2                	lw	ra,12(sp)
   13540:	4422                	lw	s0,8(sp)
   13542:	0141                	addi	sp,sp,16
   13544:	8082                	ret
   13546:	00178713          	addi	a4,a5,1 # 40001 <__BSS_END__+0x16acd>
   1354a:	c458                	sw	a4,12(s0)
   1354c:	0017c683          	lbu	a3,1(a5)
   13550:	05900713          	li	a4,89
   13554:	00e69463          	bne	a3,a4,1355c <d_function_type+0x62>
   13558:	0789                	addi	a5,a5,2
   1355a:	c45c                	sw	a5,12(s0)
   1355c:	4585                	li	a1,1
   1355e:	8522                	mv	a0,s0
   13560:	37b1                	jal	134ac <d_bare_function_type>
   13562:	85aa                	mv	a1,a0
   13564:	8522                	mv	a0,s0
   13566:	dccfd0ef          	jal	ra,10b32 <d_ref_qualifier>
   1356a:	445c                	lw	a5,12(s0)
   1356c:	04500713          	li	a4,69
   13570:	0007c683          	lbu	a3,0(a5)
   13574:	fae69ce3          	bne	a3,a4,1352c <d_function_type+0x32>
   13578:	0785                	addi	a5,a5,1
   1357a:	c45c                	sw	a5,12(s0)
   1357c:	bf4d                	j	1352e <d_function_type+0x34>

0001357e <d_unqualified_name>:
   1357e:	455c                	lw	a5,12(a0)
   13580:	1101                	addi	sp,sp,-32
   13582:	ca26                	sw	s1,20(sp)
   13584:	ce06                	sw	ra,28(sp)
   13586:	cc22                	sw	s0,24(sp)
   13588:	c84a                	sw	s2,16(sp)
   1358a:	c64e                	sw	s3,12(sp)
   1358c:	0007c703          	lbu	a4,0(a5)
   13590:	4625                	li	a2,9
   13592:	84aa                	mv	s1,a0
   13594:	fd070693          	addi	a3,a4,-48
   13598:	0ff6f693          	zext.b	a3,a3
   1359c:	02d66663          	bltu	a2,a3,135c8 <d_unqualified_name+0x4a>
   135a0:	fdafd0ef          	jal	ra,10d7a <d_source_name>
   135a4:	842a                	mv	s0,a0
   135a6:	44dc                	lw	a5,12(s1)
   135a8:	0007c703          	lbu	a4,0(a5)
   135ac:	04200793          	li	a5,66
   135b0:	18f71963          	bne	a4,a5,13742 <d_unqualified_name+0x1c4>
   135b4:	85a2                	mv	a1,s0
   135b6:	4462                	lw	s0,24(sp)
   135b8:	40f2                	lw	ra,28(sp)
   135ba:	4942                	lw	s2,16(sp)
   135bc:	49b2                	lw	s3,12(sp)
   135be:	8526                	mv	a0,s1
   135c0:	44d2                	lw	s1,20(sp)
   135c2:	6105                	addi	sp,sp,32
   135c4:	867fd06f          	j	10e2a <d_abi_tags>
   135c8:	f9f70693          	addi	a3,a4,-97
   135cc:	0ff6f693          	zext.b	a3,a3
   135d0:	4665                	li	a2,25
   135d2:	06d66063          	bltu	a2,a3,13632 <d_unqualified_name+0xb4>
   135d6:	06f00693          	li	a3,111
